L251 LINKER/LOCATER V4.66.93.0                                                          06/21/2025  18:27:27  PAGE 1


L251 LINKER/LOCATER V4.66.93.0, INVOKED BY:
C:\KEIL_V5\C251\BIN\L251.EXE .\Out_File\board.obj, .\Out_File\common.obj, .\Out_File\zf_adc.obj, .\Out_File\zf_delay.obj
>> , .\Out_File\zf_eeprom.obj, .\Out_File\zf_exti.obj, .\Out_File\zf_gpio.obj, .\Out_File\zf_nvic.obj, .\Out_File\zf_pwm
>> .obj, .\Out_File\zf_spi.obj, .\Out_File\zf_tim.obj, .\Out_File\zf_uart.obj, .\Out_File\zf_fifo.obj, .\Out_File\SEEKFR
>> EE_18TFT.obj, ..\..\Libraries\seekfree_peripheral\SEEKFREE_CONFIG.LIB, .\Out_File\SEEKFREE_FONT.obj, .\Out_File\SEEKF
>> REE_IMU660RA.obj, .\Out_File\SEEKFREE_PRINTF.obj, .\Out_File\SEEKFREE_VIRSCO.obj, .\Out_File\SEEKFREE_WIRELESS.obj, .
>> \Out_File\isr.obj, .\Out_File\main.obj, .\Out_File\control.obj, .\Out_File\menu.obj, .\Out_File\Motor.obj, .\Out_File
>> \PID.obj, .\Out_File\vofa.obj, .\Out_File\element.obj, .\Out_File\out_control.obj, .\Out_File\seekfree_assistant.obj,
>>  .\Out_File\seekfree_assistant_inface.obj TO .\Out_File\SEEKFREE PRINT (.\Out_File\SEEKFREE.map) CASE DISABLEWARNING 
>> (15, 16, 57) REMOVEUNUSED CLASSES (EDATA (0X0-0XFFF), HDATA (0X0-0XFFF))


CPU MODE:     251 SOURCE MODE
INTR FRAME:   4 BYTES SAVED ON INTERRUPT
MEMORY MODEL: XSMALL WITH FLOATING POINT ARITHMETIC


INPUT MODULES INCLUDED:
  .\Out_File\board.obj (board)
         COMMENT TYPE 0: C251 V5.60.0
  .\Out_File\common.obj (common)
         COMMENT TYPE 0: C251 V5.60.0
  .\Out_File\zf_adc.obj (zf_adc)
         COMMENT TYPE 0: C251 V5.60.0
  .\Out_File\zf_delay.obj (zf_delay)
         COMMENT TYPE 0: C251 V5.60.0
  .\Out_File\zf_eeprom.obj (zf_eeprom)
         COMMENT TYPE 0: C251 V5.60.0
  .\Out_File\zf_exti.obj (zf_exti)
         COMMENT TYPE 0: C251 V5.60.0
  .\Out_File\zf_gpio.obj (zf_gpio)
         COMMENT TYPE 0: C251 V5.60.0
  .\Out_File\zf_nvic.obj (zf_nvic)
         COMMENT TYPE 0: C251 V5.60.0
  .\Out_File\zf_pwm.obj (zf_pwm)
         COMMENT TYPE 0: C251 V5.60.0
  .\Out_File\zf_spi.obj (zf_spi)
         COMMENT TYPE 0: C251 V5.60.0
  .\Out_File\zf_tim.obj (zf_tim)
         COMMENT TYPE 0: C251 V5.60.0
  .\Out_File\zf_uart.obj (zf_uart)
         COMMENT TYPE 0: C251 V5.60.0
  .\Out_File\zf_fifo.obj (zf_fifo)
         COMMENT TYPE 0: C251 V5.60.0
  .\Out_File\SEEKFREE_18TFT.obj (SEEKFREE_18TFT)
         COMMENT TYPE 0: C251 V5.60.0
  .\Out_File\SEEKFREE_FONT.obj (SEEKFREE_FONT)
         COMMENT TYPE 0: C251 V5.60.0
  .\Out_File\SEEKFREE_IMU660RA.obj (SEEKFREE_IMU660RA)
         COMMENT TYPE 0: C251 V5.60.0
  .\Out_File\SEEKFREE_PRINTF.obj (SEEKFREE_PRINTF)
         COMMENT TYPE 0: C251 V5.60.0
  .\Out_File\SEEKFREE_VIRSCO.obj (SEEKFREE_VIRSCO)
         COMMENT TYPE 0: C251 V5.60.0
  .\Out_File\SEEKFREE_WIRELESS.obj (SEEKFREE_WIRELESS)
         COMMENT TYPE 0: C251 V5.60.0
  .\Out_File\isr.obj (isr)
         COMMENT TYPE 0: C251 V5.60.0
  .\Out_File\main.obj (main)
         COMMENT TYPE 0: C251 V5.60.0
  .\Out_File\control.obj (control)
         COMMENT TYPE 0: C251 V5.60.0
  .\Out_File\menu.obj (menu)
         COMMENT TYPE 0: C251 V5.60.0
  .\Out_File\Motor.obj (Motor)
         COMMENT TYPE 0: C251 V5.60.0
L251 LINKER/LOCATER V4.66.93.0                                                        06/21/2025  18:27:27  PAGE 2


  .\Out_File\PID.obj (PID)
         COMMENT TYPE 0: C251 V5.60.0
  .\Out_File\vofa.obj (vofa)
         COMMENT TYPE 0: C251 V5.60.0
  .\Out_File\element.obj (element)
         COMMENT TYPE 0: C251 V5.60.0
  .\Out_File\out_control.obj (out_control)
         COMMENT TYPE 0: C251 V5.60.0
  .\Out_File\seekfree_assistant.obj (seekfree_assistant)
         COMMENT TYPE 0: C251 V5.60.0
  .\Out_File\seekfree_assistant_inface.obj (seekfree_assistant_inface)
         COMMENT TYPE 0: C251 V5.60.0
  ..\..\Libraries\seekfree_peripheral\SEEKFREE_CONFIG.LIB (SEEKFREE_CONFIG)
         COMMENT TYPE 0: C251 V5.60.0
  C:\KEIL_V5\C251\LIB\C2SFPXS.LIB (?C?FPADD)
         COMMENT TYPE 0: A251 V4.69.6.0
  C:\KEIL_V5\C251\LIB\C2SFPXS.LIB (?C?FPMUL)
         COMMENT TYPE 0: A251 V4.69.6.0
  C:\KEIL_V5\C251\LIB\C2SFPXS.LIB (?C?FPDIV)
         COMMENT TYPE 0: A251 V4.69.6.0
  C:\KEIL_V5\C251\LIB\C2SFPXS.LIB (?C?FPCMP)
         COMMENT TYPE 0: A251 V4.69.6.0
  C:\KEIL_V5\C251\LIB\C2SFPXS.LIB (?C?FPNEG)
         COMMENT TYPE 0: A251 V4.69.6.0
  C:\KEIL_V5\C251\LIB\C2SFPXS.LIB (?C?FCAST)
         COMMENT TYPE 0: A251 V4.69.6.0
  C:\KEIL_V5\C251\LIB\C2SFPXS.LIB (?C?CASTF)
         COMMENT TYPE 0: A251 V4.69.6.0
  C:\KEIL_V5\C251\LIB\C2SFPXS.LIB (PRINTF)
         COMMENT TYPE 0: A251 V4.69.6.0
  C:\KEIL_V5\C251\LIB\C2SFPXS.LIB (FABS)
         COMMENT TYPE 0: A251 V4.69.6.0
  C:\KEIL_V5\C251\LIB\C2SFPXS.LIB (?C?FPGETOPN)
         COMMENT TYPE 0: A251 V4.69.6.0
  C:\KEIL_V5\C251\LIB\C2SFPXS.LIB (?C?PRNFMT)
         COMMENT TYPE 0: A251 V4.69.6.0
  C:\KEIL_V5\C251\LIB\C2SFPXS.LIB (?C?FPCONVERT)
         COMMENT TYPE 0: A251 V4.69.6.0
  C:\KEIL_V5\C251\LIB\C2SFPXS.LIB (?C?FTNPWR)
         COMMENT TYPE 0: A251 V4.69.6.0
  C:\KEIL_V5\C251\LIB\C2SXS.LIB (?C_START)
         COMMENT TYPE 0: A251 V4.69.6.0
  C:\KEIL_V5\C251\LIB\C2SXS.LIB (?C?INITEDATA)
         COMMENT TYPE 0: A251 V4.69.6.0
  C:\KEIL_V5\C251\LIB\C2SXS.LIB (?C?INITHDATA)
         COMMENT TYPE 0: A251 V4.69.6.0
  C:\KEIL_V5\C251\LIB\C2SXS.LIB (?C?SIDIV)
         COMMENT TYPE 0: A251 V4.69.6.0
  C:\KEIL_V5\C251\LIB\C2SXS.LIB (?C?ULDIV)
         COMMENT TYPE 0: A251 V4.69.6.0
  C:\KEIL_V5\C251\LIB\C2SXS.LIB (?C?SLDIV)
         COMMENT TYPE 0: A251 V4.69.6.0
  C:\KEIL_V5\C251\LIB\C2SXS.LIB (?C?BMOVENP)
         COMMENT TYPE 0: A251 V4.69.6.0
  C:\KEIL_V5\C251\LIB\C2SXS.LIB (memcpy)
         COMMENT TYPE 0: C251 V5.58.7
  C:\KEIL_V5\C251\LIB\C2SXS.LIB (memset)
         COMMENT TYPE 0: C251 V5.58.7
  C:\KEIL_V5\C251\LIB\C2SXS.LIB (?C?INITEDATA_END)
         COMMENT TYPE 0: A251 V4.69.6.0
  C:\KEIL_V5\C251\LIB\C2SXS.LIB (?C?INITHDATA_END)
         COMMENT TYPE 0: A251 V4.69.6.0


ACTIVE MEMORY CLASSES OF MODULE:  .\Out_File\SEEKFREE (board)
L251 LINKER/LOCATER V4.66.93.0                                                        06/21/2025  18:27:27  PAGE 3



BASE        START       END         USED      MEMORY CLASS
==========================================================
000000H     000000H     000FFFH     000FB9H   EDATA
000000H     000000H     000FFFH               HDATA
FF0000H     FF0000H     FFFFFFH     00922AH   CODE
000000H     FF0000H     FFFFFFH     000D16H   HCONST
010000H     010000H     01FFFFH     000218H   XDATA
000020H.0   000020H.0   00002FH.7   000000H.3 BIT
FF0000H     FF0000H     FFFFFFH     000004H   CONST
000000H     000000H     00007FH     000008H   DATA


MEMORY MAP OF MODULE:  .\Out_File\SEEKFREE (board)


START     STOP      LENGTH    ALIGN  RELOC    MEMORY CLASS   SEGMENT NAME
=========================================================================
000000H   000007H   000008H   ---    AT..     DATA           "REG BANK 0"
000008H   00001FH   000018H   BYTE   UNIT     EDATA          ?ED?FIFO_READ_BUFFER?ZF_FIFO
000020H.0 000020H.1 000000H.2 BIT    UNIT     BIT            ?BI?ISR
000020H.2 000020H.2 000000H.1 BIT    UNIT     BIT            ?BI?LOAD_ALL_PARAMS_FROM_FLASH?MENU
000020H.3 000020H   000000H.5 ---    ---      **GAP**
000021H   0004EBH   0004CBH   BYTE   UNIT     EDATA          ?ED?VOFA
0004ECH   0006BBH   0001D0H   BYTE   UNIT     EDATA          ?ED?PID
0006BCH   00078EH   0000D3H   BYTE   UNIT     EDATA          ?ED?ISR
00078FH   00081BH   00008DH   BYTE   UNIT     EDATA          ?ED?SEEKFREE_ASSISTANT_DATA_ANALYSIS?SEEKFREE_ASSISTANT
00081CH   000885H   00006AH   BYTE   UNIT     EDATA          ?ED?CONTROL
000886H   0008E4H   00005FH   BYTE   UNIT     EDATA          ?ED?ZF_SPRINTF?SEEKFREE_PRINTF
0008E5H   00093EH   00005AH   BYTE   UNIT     EDATA          ?ED?SEEKFREE_ASSISTANT
00093FH   00098EH   000050H   BYTE   UNIT     EDATA          ?ED?SAVE_ALL_PARAMS_TO_FLASH?MENU
00098FH   0009DEH   000050H   BYTE   UNIT     EDATA          ?ED?LOAD_ALL_PARAMS_FROM_FLASH?MENU
0009DFH   000A0CH   00002EH   BYTE   UNIT     EDATA          ?ED?MENU
000A0DH   000A36H   00002AH   BYTE   UNIT     EDATA          ?ED?SEEKFREE_ASSISTANT_OSCILLOSCOPE_SEND?SEEKFREE_ASSISTAN
                                                             -T
000A37H   000A5EH   000028H   BYTE   UNIT     EDATA          ?ED?MOTOR
000A5FH   000A86H   000028H   BYTE   UNIT     EDATA          _EDATA_GROUP_
000A87H   000AA8H   000022H   BYTE   UNIT     EDATA          ?ED?ELEMENT
000AA9H   000AC7H   00001FH   BYTE   UNIT     EDATA          ?ED?SEEKFREE_ASSISTANT_CAMERA_BOUNDARY_CONFIG?SEEKFREE_ASS
                                                             -ISTANT
000AC8H   000AE1H   00001AH   BYTE   UNIT     EDATA          ?ED?CALCULATE_DYNAMIC_TARGET_SPEED_QUADRATIC?CONTROL
000AE2H   000AF9H   000018H   BYTE   UNIT     EDATA          ?ED?FIFO_READ_TAIL_BUFFER?ZF_FIFO
000AFAH   000B11H   000018H   BYTE   UNIT     EDATA          ?ED?NORMALIZE_FLOAT?CONTROL
000B12H   000B25H   000014H   BYTE   UNIT     EDATA          ?ED?PWM_INIT?ZF_PWM
000B26H   000B39H   000014H   BYTE   UNIT     EDATA          ?ED?PWM_FREQ?ZF_PWM
000B3AH   000B4DH   000014H   BYTE   UNIT     EDATA          ?ED?LCD_SHOW_FONT?SEEKFREE_18TFT
000B4EH   000B61H   000014H   BYTE   UNIT     EDATA          ?ED?NUMBER_CONVERSION_ASCII?SEEKFREE_PRINTF
000B62H   000B73H   000012H   BYTE   UNIT     EDATA          ?ED?FIFO_WRITE_BUFFER?ZF_FIFO
000B74H   000B83H   000010H   BYTE   UNIT     EDATA          ?ED?FIFO_INIT?ZF_FIFO
000B84H   000B93H   000010H   BYTE   UNIT     EDATA          ?ED?LIMIT_FLOAT?CONTROL
000B94H   000BA3H   000010H   BYTE   UNIT     EDATA          ?ED?INCPID?PID
000BA4H   000BB3H   000010H   BYTE   UNIT     EDATA          ?ED?GYROPOSITIONPID?PID
000BB4H   000BC2H   00000FH   BYTE   UNIT     EDATA          ?ED?VODKA_JUSTFLOAT_SEND?VOFA
000BC3H   000BD1H   00000FH   BYTE   UNIT     EDATA          ?ED?SEEKFREE_ASSISTANT_CAMERA_DATA_SEND?SEEKFREE_ASSISTANT
000BD2H   000BDFH   00000EH   BYTE   UNIT     EDATA          ?ED?PWM_DUTY?ZF_PWM
000BE0H   000BEDH   00000EH   BYTE   UNIT     EDATA          ?ED?UART_INIT?ZF_UART
000BEEH   000BFBH   00000EH   BYTE   UNIT     EDATA          ?ED?DATA_CONVERSION?SEEKFREE_VIRSCO
000BFCH   000C09H   00000EH   BYTE   UNIT     EDATA          ?ED?CALCULATE_WEIGHT_MID?CONTROL
000C0AH   000C17H   00000EH   BYTE   UNIT     EDATA          ?ED?READ_ADC_AVERAGE?CONTROL
000C18H   000C24H   00000DH   BYTE   UNIT     EDATA          ?ED?SPI_INIT?ZF_SPI
000C25H   000C31H   00000DH   BYTE   UNIT     EDATA          ?ED?PRINTF_REVERSE_ORDER?SEEKFREE_PRINTF
000C32H   000C3DH   00000CH   BYTE   UNIT     EDATA          ?ED?FIFO_READ_ELEMENT?ZF_FIFO
000C3EH   000C49H   00000CH   BYTE   UNIT     EDATA          ?ED?LCD_SHOWFLOAT_SIMSPI?SEEKFREE_18TFT
000C4AH   000C55H   00000CH   BYTE   UNIT     EDATA          ?ED?LCD_SHOWFLOAT?SEEKFREE_18TFT
000C56H   000C61H   00000CH   BYTE   UNIT     EDATA          ?ED?SHOWIMAGE?SEEKFREE_18TFT
L251 LINKER/LOCATER V4.66.93.0                                                        06/21/2025  18:27:27  PAGE 4


000C62H   000C6DH   00000CH   BYTE   UNIT     EDATA          ?ED?SEEKFREE_IMU660RA
000C6EH   000C79H   00000CH   BYTE   UNIT     EDATA          ?ED?MAIN
000C7AH   000C85H   00000CH   BYTE   UNIT     EDATA          ?ED?LOW_PASS_FILTER?CONTROL
000C86H   000C91H   00000CH   BYTE   UNIT     EDATA          ?ED?DISPLAY_MOTOR?MENU
000C92H   000C9DH   00000CH   BYTE   UNIT     EDATA          ?ED?LIMIT_FUNCTION?MOTOR
000C9EH   000CA9H   00000CH   BYTE   UNIT     EDATA          ?ED?POSITIONPID?PID
000CAAH   000CB5H   00000CH   BYTE   UNIT     EDATA          ?ED?GYRO_LOWPASS_FILTER?PID
000CB6H   000CC1H   00000CH   BYTE   UNIT     EDATA          ?ED?TURN_PSTPID?PID
000CC2H   000CCDH   00000CH   BYTE   UNIT     EDATA          ?ED?FLOAT_TO_BYTE?VOFA
000CCEH   000CD7H   00000AH   BYTE   UNIT     EDATA          ?ED?IAP_READ_BYTES?ZF_EEPROM
000CD8H   000CE1H   00000AH   BYTE   UNIT     EDATA          ?ED?IAP_WRITE_BYTES?ZF_EEPROM
000CE2H   000CEBH   00000AH   BYTE   UNIT     EDATA          ?ED?UART_PUTBUFF?ZF_UART
000CECH   000CF5H   00000AH   BYTE   UNIT     EDATA          ?ED?FIFO_WRITE_ELEMENT?ZF_FIFO
000CF6H   000CFFH   00000AH   BYTE   UNIT     EDATA          ?ED?SEEKFREE_VIRSCO
000D00H   000D09H   00000AH   BYTE   UNIT     EDATA          ?ED?BUZZER_CONTROL_WITH_ENABLE?CONTROL
000D0AH   000D13H   00000AH   BYTE   UNIT     EDATA          ?ED?WAIT_FOR_VOLTAGE?OUT_CONTROL
000D14H   000D1DH   00000AH   BYTE   UNIT     EDATA          ?ED?SEEKFREE_ASSISTANT_CAMERA_INFORMATION_CONFIG?SEEKFREE_
                                                             -ASSISTANT
000D1EH   000D26H   000009H   BYTE   UNIT     EDATA          ?ED?LCD_SHOWINT32_SIMSPI?SEEKFREE_18TFT
000D27H   000D2FH   000009H   BYTE   UNIT     EDATA          ?ED?LCD_SHOWINT32?SEEKFREE_18TFT
000D30H   000D38H   000009H   BYTE   UNIT     EDATA          ?ED?IMU660RA_SIMSPI_W_REG_BYTES?SEEKFREE_IMU660RA
000D39H   000D41H   000009H   BYTE   UNIT     EDATA          ?ED?IMU660RA_SIMSPI_R_REG_BYTES?SEEKFREE_IMU660RA
000D42H   000D4AH   000009H   BYTE   UNIT     EDATA          ?ED?IMU660RA_WRITE_REGISTERS?SEEKFREE_IMU660RA
000D4BH   000D53H   000009H   BYTE   UNIT     EDATA          ?ED?IMU660RA_READ_REGISTERS?SEEKFREE_IMU660RA
000D54H   000D5CH   000009H   BYTE   UNIT     EDATA          ?ED?CRC_CHECK?SEEKFREE_VIRSCO
000D5DH   000D65H   000009H   BYTE   UNIT     EDATA          ?ED?ADJUST_PARAMETER_BY_KEY_FLOAT?CONTROL
000D66H   000D6EH   000009H   BYTE   UNIT     EDATA          ?ED?GET_DATA?VOFA
000D6FH   000D77H   000009H   BYTE   UNIT     EDATA          ?ED?SEEKFREE_ASSISTANT_SUM?SEEKFREE_ASSISTANT
000D78H   000D7FH   000008H   BYTE   UNIT     EDATA          ?ED?FIFO_HEAD_OFFSET?ZF_FIFO
000D80H   000D87H   000008H   BYTE   UNIT     EDATA          ?ED?FIFO_END_OFFSET?ZF_FIFO
000D88H   000D8FH   000008H   BYTE   UNIT     EDATA          ?ED?LCD_SET_REGION_SIMSPI?SEEKFREE_18TFT
000D90H   000D97H   000008H   BYTE   UNIT     EDATA          ?ED?LCD_SHOWSTR_SIMSPI?SEEKFREE_18TFT
000D98H   000D9FH   000008H   BYTE   UNIT     EDATA          ?ED?LCD_SET_REGION?SEEKFREE_18TFT
000DA0H   000DA7H   000008H   BYTE   UNIT     EDATA          ?ED?LCD_SHOWSTR?SEEKFREE_18TFT
000DA8H   000DAFH   000008H   BYTE   UNIT     EDATA          ?ED?WIRELESS_UART_SEND_BUFF?SEEKFREE_WIRELESS
000DB0H   000DB7H   000008H   BYTE   UNIT     EDATA          ?ED?WIRELESS_UART_READ_BUFF?SEEKFREE_WIRELESS
000DB8H   000DBFH   000008H   BYTE   UNIT     EDATA          ?ED?SET_TARGET_SPEEDS?CONTROL
000DC0H   000DC7H   000008H   BYTE   UNIT     EDATA          ?ED?LIMIT_RANGE?CONTROL
000DC8H   000DCFH   000008H   BYTE   UNIT     EDATA          ?ED?STRAIGHT_JUDGE?ELEMENT
000DD0H   000DD6H   000007H   BYTE   UNIT     EDATA          ?ED?SEEKFREE_ASSISTANT_CAMERA_DOT_SEND?SEEKFREE_ASSISTANT
000DD7H   000DDCH   000006H   BYTE   UNIT     EDATA          ?ED?ADC_ONCE?ZF_ADC
000DDDH   000DE2H   000006H   BYTE   UNIT     EDATA          ?ED?DELAY_US?ZF_DELAY
000DE3H   000DE8H   000006H   BYTE   UNIT     EDATA          ?ED?PIT_TIMER_MS?ZF_TIM
000DE9H   000DEEH   000006H   BYTE   UNIT     EDATA          ?ED?UART_PUTSTR?ZF_UART
000DEFH   000DF4H   000006H   BYTE   UNIT     EDATA          ?ED?FIFO_CLEAR?ZF_FIFO
000DF5H   000DFAH   000006H   BYTE   UNIT     EDATA          ?ED?LCD_DRAWPOINT_SIMSPI?SEEKFREE_18TFT
000DFBH   000E00H   000006H   BYTE   UNIT     EDATA          ?ED?LCD_SHOWCHAR_SIMSPI?SEEKFREE_18TFT
000E01H   000E06H   000006H   BYTE   UNIT     EDATA          ?ED?LCD_SHOWINT16_SIMSPI?SEEKFREE_18TFT
000E07H   000E0CH   000006H   BYTE   UNIT     EDATA          ?ED?LCD_SHOWUINT16_SIMSPI?SEEKFREE_18TFT
000E0DH   000E12H   000006H   BYTE   UNIT     EDATA          ?ED?LCD_DRAWPOINT?SEEKFREE_18TFT
000E13H   000E18H   000006H   BYTE   UNIT     EDATA          ?ED?LCD_SHOWCHAR?SEEKFREE_18TFT
000E19H   000E1EH   000006H   BYTE   UNIT     EDATA          ?ED?LCD_SHOWINT16?SEEKFREE_18TFT
000E1FH   000E24H   000006H   BYTE   UNIT     EDATA          ?ED?LCD_SHOWUINT16?SEEKFREE_18TFT
000E25H   000E2AH   000006H   BYTE   UNIT     EDATA          ?ED?IMU660RA_ACC_TRANSITION?SEEKFREE_IMU660RA
000E2BH   000E30H   000006H   BYTE   UNIT     EDATA          ?ED?IMU660RA_GYRO_TRANSITION?SEEKFREE_IMU660RA
000E31H   000E36H   000006H   BYTE   UNIT     EDATA          ?ED?UPDATE_ENCODER_SPEEDUP_VALUE?CONTROL
000E37H   000E3CH   000006H   BYTE   UNIT     EDATA          ?ED?UPDATE_GYRO_ANGLE_ACCUMULATOR?CONTROL
000E3DH   000E41H   000005H   BYTE   UNIT     EDATA          ?ED?ZF_UART
000E42H   000E46H   000005H   BYTE   UNIT     EDATA          ?ED?LCD_SHOWINT8_SIMSPI?SEEKFREE_18TFT
000E47H   000E4BH   000005H   BYTE   UNIT     EDATA          ?ED?LCD_SHOWUINT8_SIMSPI?SEEKFREE_18TFT
000E4CH   000E50H   000005H   BYTE   UNIT     EDATA          ?ED?LCD_SHOWINT8?SEEKFREE_18TFT
000E51H   000E55H   000005H   BYTE   UNIT     EDATA          ?ED?LCD_SHOWUINT8?SEEKFREE_18TFT
000E56H   000E59H   000004H   BYTE   UNIT     EDATA          ?ED?BOARD
000E5AH   000E5DH   000004H   BYTE   UNIT     EDATA          ?ED?COMMON
000E5EH   000E61H   000004H   BYTE   UNIT     EDATA          ?ED?ADC_INIT?ZF_ADC
L251 LINKER/LOCATER V4.66.93.0                                                        06/21/2025  18:27:27  PAGE 5


000E62H   000E65H   000004H   BYTE   UNIT     EDATA          ?ED?ZF_DELAY
000E66H   000E69H   000004H   BYTE   UNIT     EDATA          ?ED?DELAY_MS?ZF_DELAY
000E6AH   000E6DH   000004H   BYTE   UNIT     EDATA          ?ED?IAP_ERASE_PAGE?ZF_EEPROM
000E6EH   000E71H   000004H   BYTE   UNIT     EDATA          ?ED?EXIT_INIT?ZF_EXTI
000E72H   000E75H   000004H   BYTE   UNIT     EDATA          ?ED?GPIO_PULL_SET?ZF_GPIO
000E76H   000E79H   000004H   BYTE   UNIT     EDATA          ?ED?GPIO_MODE?ZF_GPIO
000E7AH   000E7DH   000004H   BYTE   UNIT     EDATA          ?ED?CTIMER_COUNT_READ?ZF_TIM
000E7EH   000E81H   000004H   BYTE   UNIT     EDATA          ?ED?FIFO_USED?ZF_FIFO
000E82H   000E85H   000004H   BYTE   UNIT     EDATA          ?ED?LIMITANGLE?CONTROL
000E86H   000E89H   000004H   BYTE   UNIT     EDATA          ?ED?SEEKFREE_ASSISTANT_INFACE
000E8AH   000E8CH   000003H   BYTE   UNIT     EDATA          ?ED?NVIC_SETPRIORITY?ZF_NVIC
000E8DH   000E8FH   000003H   BYTE   UNIT     EDATA          ?ED?UART_PUTCHAR?ZF_UART
000E90H   000E92H   000003H   BYTE   UNIT     EDATA          ?ED?LCD_CLEAR_SIMSPI?SEEKFREE_18TFT
000E93H   000E95H   000003H   BYTE   UNIT     EDATA          ?ED?LCD_CLEAR?SEEKFREE_18TFT
000E96H   000E97H   000002H   BYTE   UNIT     EDATA          ?ED?PWM_SET_GPIO?ZF_PWM
000E98H   000E99H   000002H   BYTE   UNIT     EDATA          ?ED?SPI_CHANGE_PIN?ZF_SPI
000E9AH   000E9BH   000002H   BYTE   UNIT     EDATA          ?ED?CTIMER_COUNT_INIT?ZF_TIM
000E9CH   000E9DH   000002H   BYTE   UNIT     EDATA          ?ED?CTIMER_COUNT_CLEAN?ZF_TIM
000E9EH   000E9FH   000002H   BYTE   UNIT     EDATA          ?ED?LCD_WRITEDATA_16BIT_SIMSPI?SEEKFREE_18TFT
000EA0H   000EA1H   000002H   BYTE   UNIT     EDATA          ?ED?LCD_WRITEDATA_16BIT?SEEKFREE_18TFT
000EA2H   000EA3H   000002H   BYTE   UNIT     EDATA          ?ED?IMU660RA_SIMSPI_W_REG_BYTE?SEEKFREE_IMU660RA
000EA4H   000EA5H   000002H   BYTE   UNIT     EDATA          ?ED?IMU660RA_WRITE_REGISTER?SEEKFREE_IMU660RA
000EA6H   000EA7H   000002H   BYTE   UNIT     EDATA          ?ED?KEY_SCAN?CONTROL
000EA8H   000EA9H   000002H   BYTE   UNIT     EDATA          ?ED?CHANGE_SPEED_TARGET?CONTROL
000EAAH   000EABH   000002H   BYTE   UNIT     EDATA          ?ED?CHANGE_SPEED_TARGET_BASE?CONTROL
000EACH   000EADH   000002H   BYTE   UNIT     EDATA          ?ED?DISPLAY_MAIN_MENU?MENU
000EAEH   000EAEH   000001H   BYTE   UNIT     EDATA          ?ED?PUTCHAR?BOARD
000EAFH   000EAFH   000001H   BYTE   UNIT     EDATA          ?ED?IAP_SET_TPS?ZF_EEPROM
000EB0H   000EB0H   000001H   BYTE   UNIT     EDATA          ?ED?SPI_MOSI?ZF_SPI
000EB1H   000EB1H   000001H   BYTE   UNIT     EDATA          ?ED?SPI_CHANGE_MODE?ZF_SPI
000EB2H   000EB2H   000001H   BYTE   UNIT     EDATA          ?ED?LCD_WRITEINDEX_SIMSPI?SEEKFREE_18TFT
000EB3H   000EB3H   000001H   BYTE   UNIT     EDATA          ?ED?LCD_WRITEDATA_SIMSPI?SEEKFREE_18TFT
000EB4H   000EB4H   000001H   BYTE   UNIT     EDATA          ?ED?LCD_WRITEINDEX?SEEKFREE_18TFT
000EB5H   000EB5H   000001H   BYTE   UNIT     EDATA          ?ED?LCD_WRITEDATA?SEEKFREE_18TFT
000EB6H   000EB6H   000001H   BYTE   UNIT     EDATA          ?ED?IMU660RA_SIMSPI_WR_BYTE?SEEKFREE_IMU660RA
000EB7H   000EB7H   000001H   BYTE   UNIT     EDATA          ?ED?IMU660RA_READ_REGISTER?SEEKFREE_IMU660RA
000EB8H   000EB8H   000001H   BYTE   UNIT     EDATA          ?ED?IMU660RA_SELF_CHECK?SEEKFREE_IMU660RA
000EB9H   000EB9H   000001H   BYTE   UNIT     EDATA          ?ED?WIRELESS_UART_CALLBACK?SEEKFREE_WIRELESS
000EBAH   000EBAH   000001H   BYTE   UNIT     EDATA          ?ED?WIRELESS_UART_SEND_BYTE?SEEKFREE_WIRELESS
000EBBH   000EBBH   000001H   BYTE   UNIT     EDATA          ?ED?UART1_ISR?ISR
000EBCH   000EBCH   000001H   BYTE   UNIT     EDATA          ?ED?KEY_SCAN_CYCLE_PWM_STATE?CONTROL
000EBDH   000EBDH   000001H   BYTE   UNIT     EDATA          ?ED?DISPLAY_G?MENU
000EBEH   000EBEH   000001H   BYTE   UNIT     EDATA          ?ED?DISPLAY_T?MENU
000EBFH   000EBFH   000001H   BYTE   UNIT     EDATA          ?ED?DISPLAY_STRAIGHT_PARAM?MENU
000EC0H   000EC0H   000001H   BYTE   UNIT     EDATA          ?ED?DISPLAY_SUBMENU_EE?MENU
000EC1H   000EC1H   000001H   BYTE   UNIT     EDATA          ?ED?DISPLAY_GYRO?MENU
000EC2H   000FC1H   000100H   BYTE   UNIT     EDATA          ?STACK
000FC2H   00FFFFH   00F03EH   ---    ---      **GAP**
010000H   0100E2H   0000E3H   BYTE   INSEG    XDATA          ?XD?SEEKFREE_ASSISTANT
0100E3H   010139H   000057H   BYTE   INSEG    XDATA          ?XD?SEEKFREE_WIRELESS
01013AH   01015DH   000024H   BYTE   UNIT     XDATA          ?XD?LCD_SHOWFLOAT_SIMSPI?SEEKFREE_18TFT
01015EH   010181H   000024H   BYTE   UNIT     XDATA          ?XD?LCD_SHOWFLOAT?SEEKFREE_18TFT
010182H   0101A4H   000023H   BYTE   UNIT     XDATA          ?XD?LCD_SHOWINT32_SIMSPI?SEEKFREE_18TFT
0101A5H   0101C7H   000023H   BYTE   UNIT     XDATA          ?XD?LCD_SHOWINT32?SEEKFREE_18TFT
0101C8H   0101CEH   000007H   BYTE   UNIT     XDATA          ?XD?IMU660RA_GET_ACC?SEEKFREE_IMU660RA
0101CFH   0101D5H   000007H   BYTE   UNIT     XDATA          ?XD?IMU660RA_GET_GYRO?SEEKFREE_IMU660RA
0101D6H   0101DBH   000006H   BYTE   UNIT     XDATA          ?XD?LCD_SHOWINT16_SIMSPI?SEEKFREE_18TFT
0101DCH   0101E1H   000006H   BYTE   UNIT     XDATA          ?XD?LCD_SHOWUINT16_SIMSPI?SEEKFREE_18TFT
0101E2H   0101E7H   000006H   BYTE   UNIT     XDATA          ?XD?LCD_SHOWINT16?SEEKFREE_18TFT
0101E8H   0101EDH   000006H   BYTE   UNIT     XDATA          ?XD?LCD_SHOWUINT16?SEEKFREE_18TFT
0101EEH   0101F1H   000004H   BYTE   UNIT     XDATA          ?XD?LCD_SHOWINT8_SIMSPI?SEEKFREE_18TFT
0101F2H   0101F5H   000004H   BYTE   UNIT     XDATA          ?XD?LCD_SHOWUINT8_SIMSPI?SEEKFREE_18TFT
0101F6H   0101F9H   000004H   BYTE   UNIT     XDATA          ?XD?LCD_SHOWINT8?SEEKFREE_18TFT
0101FAH   0101FDH   000004H   BYTE   UNIT     XDATA          ?XD?LCD_SHOWUINT8?SEEKFREE_18TFT
0101FEH   010201H   000004H   BYTE   UNIT     XDATA          ?XD?WIRELESS_UART_READ_BUFF?SEEKFREE_WIRELESS
L251 LINKER/LOCATER V4.66.93.0                                                        06/21/2025  18:27:27  PAGE 6


010202H   010204H   000003H   BYTE   UNIT     XDATA          ?XD?IMU660RA_SELF_CHECK?SEEKFREE_IMU660RA
010205H   010206H   000002H   BYTE   UNIT     XDATA          ?XD?LCD_SHOWCHAR_SIMSPI?SEEKFREE_18TFT
010207H   010208H   000002H   BYTE   UNIT     XDATA          ?XD?LCD_SHOWSTR_SIMSPI?SEEKFREE_18TFT
010209H   01020AH   000002H   BYTE   UNIT     XDATA          ?XD?LCD_WRITEDATA_16BIT?SEEKFREE_18TFT
01020BH   01020CH   000002H   BYTE   UNIT     XDATA          ?XD?LCD_SHOWCHAR?SEEKFREE_18TFT
01020DH   01020EH   000002H   BYTE   UNIT     XDATA          ?XD?LCD_SHOWSTR?SEEKFREE_18TFT
01020FH   010210H   000002H   BYTE   UNIT     XDATA          ?XD?IMU660RA_READ_REGISTER?SEEKFREE_IMU660RA
010211H   010211H   000001H   BYTE   UNIT     XDATA          ?XD?LCD_WRITEINDEX_SIMSPI?SEEKFREE_18TFT
010212H   010212H   000001H   BYTE   UNIT     XDATA          ?XD?LCD_WRITEDATA_SIMSPI?SEEKFREE_18TFT
010213H   010213H   000001H   BYTE   UNIT     XDATA          ?XD?LCD_WRITEDATA_16BIT_SIMSPI?SEEKFREE_18TFT
010214H   010214H   000001H   BYTE   UNIT     XDATA          ?XD?LCD_CLEAR_SIMSPI?SEEKFREE_18TFT
010215H   010215H   000001H   BYTE   UNIT     XDATA          ?XD?LCD_CLEAR?SEEKFREE_18TFT
010216H   010216H   000001H   BYTE   UNIT     XDATA          ?XD?IMU660RA_SIMSPI_WR_BYTE?SEEKFREE_IMU660RA
010217H   010217H   000001H   BYTE   UNIT     XDATA          ?XD?IMU660RA_INIT?SEEKFREE_IMU660RA
010218H   FEFFFFH   FDFDE8H   ---    ---      **GAP**
FF0000H   FF0002H   000003H   ---    OFFS..   CODE           ?CO?start251?4
FF0003H   FF0005H   000003H   ---    OFFS..   CODE           ?PR?IV?0
FF0006H   FF0009H   000004H   BYTE   INSEG    CODE           ?PR?ENABLEGLOBALIRQ?BOARD
FF000AH   FF000AH   000001H   BYTE   INSEG    CODE           ?PR?INT1_ISR?ISR
FF000BH   FF000DH   000003H   ---    OFFS..   CODE           ?PR?IV?1
FF000EH   FF0011H   000004H   BYTE   INSEG    CODE           ?PR?INT0_ISR?ISR
FF0012H   FF0012H   000001H   BYTE   INSEG    CODE           ?PR?TM0_ISR?ISR
FF0013H   FF0015H   000003H   ---    OFFS..   CODE           ?PR?IV?2
FF0016H   FF0019H   000004H   BYTE   INSEG    CODE           ?PR?INT2_ISR?ISR
FF001AH   FF001AH   000001H   ---    ---      **GAP**
FF001BH   FF001DH   000003H   ---    OFFS..   CODE           ?PR?IV?3
FF001EH   FF0021H   000004H   BYTE   INSEG    CODE           ?PR?INT3_ISR?ISR
FF0022H   FF0022H   000001H   ---    ---      **GAP**
FF0023H   FF0025H   000003H   ---    OFFS..   CODE           ?PR?IV?4
FF0026H   FF0041H   00001CH   BYTE   INSEG    CODE           ?PR?WIRELESS_UART_CALLBACK?SEEKFREE_WIRELESS
FF0042H   FF0042H   000001H   ---    ---      **GAP**
FF0043H   FF0045H   000003H   ---    OFFS..   CODE           ?PR?IV?8
FF0046H   FF0049H   000004H   BYTE   INSEG    CODE           ?PR?INT4_ISR?ISR
FF004AH   FF004DH   000004H   BYTE   UNIT     CONST          ?CO?PRINTF
FF004EH   FF0052H   000005H   ---    ---      **GAP**
FF0053H   FF0055H   000003H   ---    OFFS..   CODE           ?PR?IV?10
FF0056H   FF005AH   000005H   ---    ---      **GAP**
FF005BH   FF005DH   000003H   ---    OFFS..   CODE           ?PR?IV?11
FF005EH   FF0082H   000025H   BYTE   INSEG    CODE           ?PR?MEMCPY?_?MEMCPY
FF0083H   FF0085H   000003H   ---    OFFS..   CODE           ?PR?IV?16
FF0086H   FF008AH   000005H   ---    ---      **GAP**
FF008BH   FF008DH   000003H   ---    OFFS..   CODE           ?PR?IV?17
FF008EH   FF0092H   000005H   ---    ---      **GAP**
FF0093H   FF0095H   000003H   ---    OFFS..   CODE           ?PR?IV?18
FF0096H   FF009DH   000008H   BYTE   UNIT     HCONST         ?HC?VOFA
FF009EH   FF00A2H   000005H   ---    ---      **GAP**
FF00A3H   FF00A5H   000003H   ---    OFFS..   CODE           ?PR?IV?20
FF00A6H   FF212CH   002087H   BYTE   UNIT     CODE           ?CO?SEEKFREE_CONFIG
FF212DH   FF2AEFH   0009C3H   BYTE   UNIT     CODE           ?C?LIB_CODE
FF2AF0H   FF33FCH   00090DH   BYTE   INSEG    CODE           ?PR?GPIO_MODE?ZF_GPIO
FF33FDH   FF3C14H   000818H   BYTE   UNIT     CODE           ?CO?SEEKFREE_FONT
FF3C15H   FF4275H   000661H   BYTE   INSEG    CODE           ?PR?ZF_SPRINTF?SEEKFREE_PRINTF
FF4276H   FF464FH   0003DAH   BYTE   INSEG    CODE           ?PR?PWM_INIT?ZF_PWM
FF4650H   FF4A20H   0003D1H   BYTE   INSEG    CODE           ?PR?DISPLAY_GYRO?MENU
FF4A21H   FF4DDAH   0003BAH   BYTE   INSEG    CODE           ?PR?DISPLAY_G?MENU
FF4DDBH   FF5192H   0003B8H   BYTE   INSEG    CODE           ?PR?PWM_SET_GPIO?ZF_PWM
FF5193H   FF553AH   0003A8H   BYTE   INSEG    CODE           ?PR?DISPLAY_T?MENU
FF553BH   FF58CCH   000392H   BYTE   INSEG    CODE           ?PR?FIFO_WRITE_BUFFER?ZF_FIFO
FF58CDH   FF5C44H   000378H   BYTE   INSEG    CODE           ?PR?TM1_ISR?ISR
FF5C45H   FF5F1FH   0002DBH   BYTE   INSEG    CODE           ?PR?MAIN?MAIN
FF5F20H   FF61F7H   0002D8H   BYTE   INSEG    CODE           ?PR?GET_DATA?VOFA
FF61F8H   FF64CAH   0002D3H   BYTE   INSEG    CODE           ?PR?TM4_ISR?ISR
FF64CBH   FF6789H   0002BFH   BYTE   INSEG    CODE           ?PR?DISPLAY_MOTOR?MENU
FF678AH   FF6A3BH   0002B2H   BYTE   INSEG    CODE           ?PR?UART_INIT?ZF_UART
FF6A3CH   FF6C81H   000246H   BYTE   INSEG    CODE           ?PR?DISPLAY_SUBMENU_CHECK?MENU
L251 LINKER/LOCATER V4.66.93.0                                                        06/21/2025  18:27:27  PAGE 7


FF6C82H   FF6E87H   000206H   BYTE   INSEG    CODE           ?PR?SET_CLK?BOARD
FF6E88H   FF707CH   0001F5H   BYTE   INSEG    CODE           ?PR?DISPLAY_STRAIGHT_PARAM?MENU
FF707DH   FF726FH   0001F3H   BYTE   INSEG    CODE           ?PR?LCD_INIT?SEEKFREE_18TFT
FF7270H   FF7434H   0001C5H   BYTE   INSEG    CODE           ?PR?DISPLAY_SUBMENU_EE?MENU
FF7435H   FF75E1H   0001ADH   BYTE   INSEG    CODE           ?PR?INCPID?PID
FF75E2H   FF774AH   000169H   BYTE   INSEG    CODE           ?PR?LCD_SHOWFLOAT?SEEKFREE_18TFT
FF774BH   FF787AH   000130H   BYTE   INSEG    CODE           ?PR?OUT_PWM?OUT_CONTROL
FF787BH   FF799CH   000122H   BYTE   INSEG    CODE           ?PR?LCD_SHOW_FONT?SEEKFREE_18TFT
FF799DH   FF7AB4H   000118H   BYTE   INSEG    CODE           ?PR?PWM_DUTY?ZF_PWM
FF7AB5H   FF7BCBH   000117H   BYTE   INSEG    CODE           ?PR?NUMBER_CONVERSION_ASCII?SEEKFREE_PRINTF
FF7BCCH   FF7CE2H   000117H   BYTE   INSEG    CODE           ?PR?KEY_SCAN?CONTROL
FF7CE3H   FF7DC7H   0000E5H   BYTE   INSEG    CODE           ?PR?PIT_TIMER_MS?ZF_TIM
FF7DC8H   FF7E98H   0000D1H   BYTE   INSEG    CODE           ?PR?LCD_SHOWUINT16?SEEKFREE_18TFT
FF7E99H   FF7F66H   0000CEH   BYTE   INSEG    CODE           ?PR?SPI_INIT?ZF_SPI
FF7F67H   FF8026H   0000C0H   BYTE   INSEG    CODE           ?PR?INIT?CONTROL
FF8027H   FF80E2H   0000BCH   BYTE   INSEG    CODE           ?PR?LCD_SHOWCHAR?SEEKFREE_18TFT
FF80E3H   FF8197H   0000B5H   BYTE   INSEG    CODE           ?PR?ADC_INIT?ZF_ADC
FF8198H   FF824CH   0000B5H   BYTE   INSEG    CODE           ?PR?ACQUIRE_SENSOR_DATA?OUT_CONTROL
FF824DH   FF8300H   0000B4H   BYTE   INSEG    CODE           ?PR?CTIMER_COUNT_READ?ZF_TIM
FF8301H   FF83AEH   0000AEH   BYTE   INSEG    CODE           ?PR?IMU660RA_INIT?SEEKFREE_IMU660RA
FF83AFH   FF8456H   0000A8H   BYTE   INSEG    CODE           ?PR?IMU660RA_GYRO_TRANSITION?SEEKFREE_IMU660RA
FF8457H   FF84EDH   000097H   BYTE   INSEG    CODE           ?PR?BOARD_INIT?BOARD
FF84EEH   FF8582H   000095H   BYTE   INSEG    CODE           ?PR?PRINTF_REVERSE_ORDER?SEEKFREE_PRINTF
FF8583H   FF8611H   00008FH   BYTE   INSEG    CODE           ?PR?UART4_ISR?ISR
FF8612H   FF86A0H   00008FH   BYTE   INSEG    CODE           ?PR?STRAIGHT_JUDGE?ELEMENT
FF86A1H   FF872DH   00008DH   BYTE   INSEG    CODE           ?PR?KEY_SCAN_CYCLE_PWM_STATE?CONTROL
FF872EH   FF87B0H   000083H   BYTE   INSEG    CODE           ?PR?FIFO_INIT?ZF_FIFO
FF87B1H   FF882EH   00007EH   BYTE   INSEG    CODE           ?PR?NORMALIZE_FLOAT?CONTROL
FF882FH   FF88A5H   000077H   BYTE   INSEG    CODE           ?PR?READ_ADC_AVERAGE?CONTROL
FF88A6H   FF891BH   000076H   BYTE   INSEG    CODE           ?PR?USART_PID_ADJUST?VOFA
FF891CH   FF8990H   000075H   BYTE   INSEG    CODE           ?PR?UART_PUTCHAR?ZF_UART
FF8991H   FF89A3H   000013H   BYTE   UNIT     CODE           ?C_C51STARTUP
FF89A4H   FF89A7H   000004H   BYTE   UNIT     CODE           ?C_C51STARTUP?1
FF89A8H   FF8A01H   00005AH   BYTE   UNIT     CODE           ?C_C51STARTUP?2
FF8A02H   FF8A04H   000003H   BYTE   UNIT     CODE           ?C_C51STARTUP?3
FF8A05H   FF8A74H   000070H   BYTE   INSEG    CODE           ?PR?FIFO_HEAD_OFFSET?ZF_FIFO
FF8A75H   FF8ADEH   00006AH   BYTE   INSEG    CODE           ?PR?LCD_SHOWSTR?SEEKFREE_18TFT
FF8ADFH   FF8B42H   000064H   BYTE   INSEG    CODE           ?PR?LCD_SET_REGION?SEEKFREE_18TFT
FF8B43H   FF8BA1H   00005FH   BYTE   INSEG    CODE           ?PR?UPDATE_ENCODER_SPEEDUP_VALUE?CONTROL
FF8BA2H   FF8BFEH   00005DH   BYTE   INSEG    CODE           ?PR?CTIMER_COUNT_CLEAN?ZF_TIM
FF8BFFH   FF8C57H   000059H   BYTE   INSEG    CODE           ?PR?IMU660RA_SIMSPI_WR_BYTE?SEEKFREE_IMU660RA
FF8C58H   FF8CAEH   000057H   BYTE   INSEG    CODE           ?PR?LCD_CLEAR?SEEKFREE_18TFT
FF8CAFH   FF8D04H   000056H   BYTE   INSEG    CODE           ?PR?ADC_ONCE?ZF_ADC
FF8D05H   FF8D58H   000054H   BYTE   INSEG    CODE           ?PR?CTIMER_COUNT_INIT?ZF_TIM
FF8D59H   FF8DACH   000054H   BYTE   INSEG    CODE           ?PR?IMU660RA_GET_GYRO?SEEKFREE_IMU660RA
FF8DADH   FF8E00H   000054H   BYTE   INSEG    CODE           ?PR?WIRELESS_UART_INIT?SEEKFREE_WIRELESS
FF8E01H   FF8E4FH   00004FH   BYTE   INSEG    CODE           ?PR?ADJUST_PARAMETER_BY_KEY_FLOAT?CONTROL
FF8E50H   FF8E9DH   00004EH   BYTE   INSEG    CODE           ?PR?IMU660RA_SELF_CHECK?SEEKFREE_IMU660RA
FF8E9EH   FF8EE8H   00004BH   BYTE   INSEG    CODE           ?PR?IMU660RA_SIMSPI_R_REG_BYTES?SEEKFREE_IMU660RA
FF8EE9H   FF8F32H   00004AH   BYTE   INSEG    CODE           ?PR?UPDATE_GYRO_ANGLE_ACCUMULATOR?CONTROL
FF8F33H   FF8F75H   000043H   BYTE   INSEG    CODE           ?PR?LIMIT_FLOAT?CONTROL
FF8F76H   FF8FB7H   000042H   BYTE   INSEG    CODE           ?PR?UART1_ISR?ISR
FF8FB8H   FF8FF8H   000041H   BYTE   INSEG    CODE           ?PR?DELAY_INIT?ZF_DELAY
FF8FF9H   FF9036H   00003EH   BYTE   INSEG    CODE           ?PR?IMU660RA_SIMSPI_W_REG_BYTES?SEEKFREE_IMU660RA
FF9037H   FF906BH   000035H   BYTE   INSEG    CODE           ?PR?DELAY_MS?ZF_DELAY
FF906CH   FF909EH   000033H   BYTE   INSEG    CODE           ?PR?LIMIT_FUNCTION?MOTOR
FF909FH   FF90CAH   00002CH   BYTE   INSEG    CODE           ?PR?LCD_WRITEDATA_16BIT?SEEKFREE_18TFT
FF90CBH   FF90F3H   000029H   BYTE   INSEG    CODE           ?PR?BUZZER_CONTROL_WITH_ENABLE?CONTROL
FF90F4H   FF9119H   000026H   BYTE   INSEG    CODE           ?PR?IMU660RA_READ_REGISTER?SEEKFREE_IMU660RA
FF911AH   FF913FH   000026H   BYTE   INSEG    CODE           ?PR?IMU660RA_READ_REGISTERS?SEEKFREE_IMU660RA
FF9140H   FF9161H   000022H   BYTE   INSEG    CODE           ?PR?IMU660RA_WRITE_REGISTERS?SEEKFREE_IMU660RA
FF9162H   FF9180H   00001FH   BYTE   INSEG    CODE           ?PR?CHANGE_SPEED_TARGET_BASE?CONTROL
FF9181H   FF919BH   00001BH   BYTE   INSEG    CODE           ?PR?IMU660RA_SIMSPI_W_REG_BYTE?SEEKFREE_IMU660RA
FF919CH   FF91B5H   00001AH   BYTE   INSEG    CODE           ?PR?IMU660RA_WRITE_REGISTER?SEEKFREE_IMU660RA
FF91B6H   FF91CFH   00001AH   BYTE   INSEG    CODE           ?PR?UART2_ISR?ISR
L251 LINKER/LOCATER V4.66.93.0                                                        06/21/2025  18:27:27  PAGE 8


FF91D0H   FF91E9H   00001AH   BYTE   INSEG    CODE           ?PR?UART3_ISR?ISR
FF91EAH   FF9203H   00001AH   BYTE   INSEG    CODE           ?PR?MEMSET?_?MEMSET
FF9204H   FF9218H   000015H   BYTE   INSEG    CODE           ?PR?LCD_WRITEINDEX?SEEKFREE_18TFT
FF9219H   FF922DH   000015H   BYTE   INSEG    CODE           ?PR?LCD_WRITEDATA?SEEKFREE_18TFT
FF922EH   FF923FH   000012H   BYTE   INSEG    CODE           ?PR?PUTCHAR?BOARD
FF9240H   FF9251H   000012H   BYTE   INSEG    CODE           ?PR?SPI_MOSI?ZF_SPI
FF9252H   FF9AA0H   00084FH   BYTE   UNIT     HCONST         ?C_INITEDATA
FF9AA1H   FF9CA0H   000200H   BYTE   UNIT     HCONST         ?HC?SEEKFREE_FONT
FF9CA1H   FF9DD8H   000138H   BYTE   UNIT     HCONST         ?HC?MENU
FF9DD9H   FF9EBAH   0000E2H   BYTE   UNIT     HCONST         ?C_INITHDATA
FF9EBBH   FF9F12H   000058H   BYTE   UNIT     HCONST         ?HC?ZF_PWM
FF9F13H   FF9F46H   000034H   BYTE   UNIT     HCONST         ?HC?SEEKFREE_IMU660RA
FF9F47H   FF9F59H   000013H   BYTE   UNIT     HCONST         ?HC?MAIN
FF9F5AH   FF9F5FH   000006H   BYTE   UNIT     HCONST         ?HC?SEEKFREE_18TFT

* * * * * * * * *   R E M O V E D     S E G M E N T S   * * * * * * * *
   *DEL*:           000004H   BYTE   INSEG    CODE           ?PR?DISABLEGLOBALIRQ?BOARD
   *DEL*:           000033H   BYTE   INSEG    CODE           ?PR?DELAY_US?ZF_DELAY
   *DEL*:           00001AH   BYTE   INSEG    CODE           ?PR?IAP_SET_TPS?ZF_EEPROM
   *DEL*:           000015H   BYTE   INSEG    CODE           ?PR?EEPROM_TRIG?ZF_EEPROM
   *DEL*:           000029H   BYTE   INSEG    CODE           ?PR?IAP_ERASE_PAGE?ZF_EEPROM
   *DEL*:           000004H   BYTE   INSEG    CODE           ?PR?IAP_IDLE?ZF_EEPROM
   *DEL*:           000062H   BYTE   INSEG    CODE           ?PR?IAP_READ_BYTES?ZF_EEPROM
   *DEL*:           000008H   BYTE   INSEG    CODE           ?PR?IAP_INIT?ZF_EEPROM
   *DEL*:           00005EH   BYTE   INSEG    CODE           ?PR?IAP_WRITE_BYTES?ZF_EEPROM
   *DEL*:           000012H   BYTE   INSEG    CODE           ?PR?IAP_GET_CMD_STATE?ZF_EEPROM
   *DEL*:           000066H   BYTE   INSEG    CODE           ?PR?EXIT_INIT?ZF_EXTI
   *DEL*:           000095H   BYTE   INSEG    CODE           ?PR?GPIO_PULL_SET?ZF_GPIO
   *DEL*:           0000B9H   BYTE   INSEG    CODE           ?PR?NVIC_SETPRIORITY?ZF_NVIC
   *DEL*:           0001ABH   BYTE   INSEG    CODE           ?PR?PWM_FREQ?ZF_PWM
   *DEL*:           000026H   BYTE   INSEG    CODE           ?PR?SPI_CHANGE_MODE?ZF_SPI
   *DEL*:           0000CCH   BYTE   INSEG    CODE           ?PR?SPI_CHANGE_PIN?ZF_SPI
   *DEL*:           000033H   BYTE   INSEG    CODE           ?PR?UART_PUTBUFF?ZF_UART
   *DEL*:           00002BH   BYTE   INSEG    CODE           ?PR?UART_PUTSTR?ZF_UART
   *DEL*:           0003ACH   BYTE   INSEG    CODE           ?PR?FIFO_READ_BUFFER?ZF_FIFO
   *DEL*:           00013BH   BYTE   INSEG    CODE           ?PR?FIFO_WRITE_ELEMENT?ZF_FIFO
   *DEL*:           000434H   BYTE   INSEG    CODE           ?PR?FIFO_READ_TAIL_BUFFER?ZF_FIFO
   *DEL*:           0000EAH   BYTE   INSEG    CODE           ?PR?FIFO_CLEAR?ZF_FIFO
   *DEL*:           000070H   BYTE   INSEG    CODE           ?PR?FIFO_END_OFFSET?ZF_FIFO
   *DEL*:           000025H   BYTE   INSEG    CODE           ?PR?FIFO_USED?ZF_FIFO
   *DEL*:           00018BH   BYTE   INSEG    CODE           ?PR?FIFO_READ_ELEMENT?ZF_FIFO
   *DEL*:           0000E5H   BYTE   INSEG    CODE           ?PR?LCD_SHOWINT32_SIMSPI?SEEKFREE_18TFT
   *DEL*:           00011FH   BYTE   INSEG    CODE           ?PR?LCD_SHOWINT16_SIMSPI?SEEKFREE_18TFT
   *DEL*:           0000E5H   BYTE   INSEG    CODE           ?PR?LCD_SHOWINT32?SEEKFREE_18TFT
   *DEL*:           00011FH   BYTE   INSEG    CODE           ?PR?LCD_SHOWINT16?SEEKFREE_18TFT
   *DEL*:           000057H   BYTE   INSEG    CODE           ?PR?LCD_CLEAR_SIMSPI?SEEKFREE_18TFT
   *DEL*:           00006AH   BYTE   INSEG    CODE           ?PR?LCD_SHOWSTR_SIMSPI?SEEKFREE_18TFT
   *DEL*:           00004BH   BYTE   INSEG    CODE           ?PR?LCD_WRITEINDEX_SIMSPI?SEEKFREE_18TFT
   *DEL*:           00004BH   BYTE   INSEG    CODE           ?PR?LCD_WRITEDATA_SIMSPI?SEEKFREE_18TFT
   *DEL*:           000054H   BYTE   INSEG    CODE           ?PR?LCD_WRITEDATA_16BIT_SIMSPI?SEEKFREE_18TFT
   *DEL*:           000064H   BYTE   INSEG    CODE           ?PR?LCD_SET_REGION_SIMSPI?SEEKFREE_18TFT
   *DEL*:           0001FBH   BYTE   INSEG    CODE           ?PR?LCD_INIT_SIMSPI?SEEKFREE_18TFT
   *DEL*:           0000ECH   BYTE   INSEG    CODE           ?PR?SHOWIMAGE?SEEKFREE_18TFT
   *DEL*:           0000ADH   BYTE   INSEG    CODE           ?PR?LCD_SHOWUINT8_SIMSPI?SEEKFREE_18TFT
   *DEL*:           0000ADH   BYTE   INSEG    CODE           ?PR?LCD_SHOWUINT8?SEEKFREE_18TFT
   *DEL*:           0000F1H   BYTE   INSEG    CODE           ?PR?LCD_SHOWINT8_SIMSPI?SEEKFREE_18TFT
   *DEL*:           0000F1H   BYTE   INSEG    CODE           ?PR?LCD_SHOWINT8?SEEKFREE_18TFT
   *DEL*:           000169H   BYTE   INSEG    CODE           ?PR?LCD_SHOWFLOAT_SIMSPI?SEEKFREE_18TFT
   *DEL*:           000023H   BYTE   INSEG    CODE           ?PR?LCD_DRAWPOINT_SIMSPI?SEEKFREE_18TFT
   *DEL*:           000023H   BYTE   INSEG    CODE           ?PR?LCD_DRAWPOINT?SEEKFREE_18TFT
   *DEL*:           0000BCH   BYTE   INSEG    CODE           ?PR?LCD_SHOWCHAR_SIMSPI?SEEKFREE_18TFT
   *DEL*:           0000D1H   BYTE   INSEG    CODE           ?PR?LCD_SHOWUINT16_SIMSPI?SEEKFREE_18TFT
   *DEL*:           000054H   BYTE   INSEG    CODE           ?PR?IMU660RA_GET_ACC?SEEKFREE_IMU660RA
   *DEL*:           00007CH   BYTE   INSEG    CODE           ?PR?IMU660RA_ACC_TRANSITION?SEEKFREE_IMU660RA
   *DEL*:           00009AH   BYTE   INSEG    CODE           ?PR?CRC_CHECK?SEEKFREE_VIRSCO
L251 LINKER/LOCATER V4.66.93.0                                                        06/21/2025  18:27:27  PAGE 9


   *DEL*:           0000DCH   BYTE   INSEG    CODE           ?PR?DATA_CONVERSION?SEEKFREE_VIRSCO
   *DEL*:           000042H   BYTE   INSEG    CODE           ?PR?WIRELESS_UART_READ_BUFF?SEEKFREE_WIRELESS
   *DEL*:           000075H   BYTE   INSEG    CODE           ?PR?WIRELESS_UART_SEND_BUFF?SEEKFREE_WIRELESS
   *DEL*:           00001EH   BYTE   INSEG    CODE           ?PR?WIRELESS_UART_SEND_BYTE?SEEKFREE_WIRELESS
   *DEL*:           0000F0H   BYTE   INSEG    CODE           ?PR?CALCULATE_DYNAMIC_TARGET_SPEED_QUADRATIC?CONTROL
   *DEL*:           00003BH   BYTE   INSEG    CODE           ?PR?LIMIT_RANGE?CONTROL
   *DEL*:           000015H   BYTE   INSEG    CODE           ?PR?SET_TARGET_SPEEDS?CONTROL
   *DEL*:           00001FH   BYTE   INSEG    CODE           ?PR?CHANGE_SPEED_TARGET?CONTROL
   *DEL*:           000031H   BYTE   INSEG    CODE           ?PR?LOW_PASS_FILTER?CONTROL
   *DEL*:           0000C5H   BYTE   INSEG    CODE           ?PR?CALCULATE_WEIGHT_MID?CONTROL
   *DEL*:           000070H   BYTE   INSEG    CODE           ?PR?LIMITANGLE?CONTROL
   *DEL*:           00007BH   BYTE   INSEG    CODE           ?PR?DISPLAY_MAIN_MENU?MENU
   *DEL*:           00019FH   BYTE   INSEG    CODE           ?PR?LOAD_ALL_PARAMS_FROM_FLASH?MENU
   *DEL*:           0000D5H   BYTE   INSEG    CODE           ?PR?SAVE_ALL_PARAMS_TO_FLASH?MENU
   *DEL*:           00002FH   BYTE   INSEG    CODE           ?PR?GYRO_LOWPASS_FILTER?PID
   *DEL*:           0001FEH   BYTE   INSEG    CODE           ?PR?POSITIONPID?PID
   *DEL*:           0001E2H   BYTE   INSEG    CODE           ?PR?TURN_PSTPID?PID
   *DEL*:           00027FH   BYTE   INSEG    CODE           ?PR?GYROPOSITIONPID?PID
   *DEL*:           000085H   BYTE   INSEG    CODE           ?PR?VODKA_JUSTFLOAT_SEND?VOFA
   *DEL*:           000047H   BYTE   INSEG    CODE           ?PR?FLOAT_TO_BYTE?VOFA
   *DEL*:           000054H   BYTE   INSEG    CODE           ?PR?CHECK_HALL_SENSOR?ELEMENT
   *DEL*:           000056H   BYTE   INSEG    CODE           ?PR?CRICLE_CL?ELEMENT
   *DEL*:           00027EH   BYTE   INSEG    CODE           ?PR?CIRCLE_DETECT?ELEMENT
   *DEL*:           000054H   BYTE   INSEG    CODE           ?PR?WAIT_FOR_VOLTAGE?OUT_CONTROL
   *DEL*:           0003F2H   BYTE   INSEG    CODE           ?PR?SEEKFREE_ASSISTANT_CAMERA_BOUNDARY_CONFIG?SEEKFREE_ASS
                                                             -ISTANT
   *DEL*:           000101H   BYTE   INSEG    CODE           ?PR?SEEKFREE_ASSISTANT_CAMERA_DOT_SEND?SEEKFREE_ASSISTANT
   *DEL*:           000138H   BYTE   INSEG    CODE           ?PR?SEEKFREE_ASSISTANT_OSCILLOSCOPE_SEND?SEEKFREE_ASSISTAN
                                                             -T
   *DEL*:           000022H   BYTE   INSEG    CODE           ?PR?SEEKFREE_ASSISTANT_INIT?SEEKFREE_ASSISTANT
   *DEL*:           00003FH   BYTE   INSEG    CODE           ?PR?SEEKFREE_ASSISTANT_SUM?SEEKFREE_ASSISTANT
   *DEL*:           00003FH   BYTE   INSEG    CODE           ?PR?SEEKFREE_ASSISTANT_CAMERA_INFORMATION_CONFIG?SEEKFREE_
                                                             -ASSISTANT
   *DEL*:           0001B8H   BYTE   INSEG    CODE           ?PR?SEEKFREE_ASSISTANT_DATA_ANALYSIS?SEEKFREE_ASSISTANT
   *DEL*:           000101H   BYTE   INSEG    CODE           ?PR?SEEKFREE_ASSISTANT_CAMERA_DATA_SEND?SEEKFREE_ASSISTANT
   *DEL*:           000034H   BYTE   INSEG    CODE           ?PR?SEEKFREE_ASSISTANT_CAMERA_SEND?SEEKFREE_ASSISTANT



OVERLAY MAP OF MODULE:   .\Out_File\SEEKFREE (board)


FUNCTION/MODULE                               EDATA_GROUP
--> CALLED FUNCTION/MODULE                    START  STOP
=========================================================
UART1_Isr/isr                                 ----- -----

*** NEW ROOT ********************************

UART2_Isr/isr                                 ----- -----

*** NEW ROOT ********************************

UART3_Isr/isr                                 ----- -----

*** NEW ROOT ********************************

UART4_Isr/isr                                 ----- -----
  +--> USART_PID_Adjust/vofa
  +--> memset?_/memset

USART_PID_Adjust/vofa                         ----- -----
  +--> Get_Data/vofa

Get_Data/vofa                                 ----- -----
L251 LINKER/LOCATER V4.66.93.0                                                        06/21/2025  18:27:27  PAGE 10



memset?_/memset                               ----- -----

*** NEW ROOT ********************************

INT0_Isr/isr                                  ----- -----

*** NEW ROOT ********************************

INT1_Isr/isr                                  ----- -----

*** NEW ROOT ********************************

INT2_Isr/isr                                  ----- -----

*** NEW ROOT ********************************

INT3_Isr/isr                                  ----- -----

*** NEW ROOT ********************************

INT4_Isr/isr                                  ----- -----

*** NEW ROOT ********************************

TM0_Isr/isr                                   ----- -----

*** NEW ROOT ********************************

TM1_Isr/isr                                   ----- -----
  +--> acquire_sensor_data/out_control
  +--> update_gyro_angle_accumulator/control
  +--> FABS?_/FABS
  +--> update_encoder_speedup_value/control
  +--> straight_judge/element
  +--> limit_function/Motor
  +--> IncPID/PID
  +--> key_scan_cycle_pwm_state/control
  +--> out_pwm/out_control

acquire_sensor_data/out_control               ----- -----
  +--> imu660ra_get_gyro/SEEKFREE_IMU660RA
  +--> imu660ra_gyro_transition/SEEKFREE_IMU660RA
  +--> ctimer_count_read/zf_tim
  +--> ctimer_count_clean/zf_tim

imu660ra_get_gyro/SEEKFREE_IMU660RA           ----- -----
  +--> imu660ra_read_registers/SEEKFREE_IMU660RA

imu660ra_read_registers/SEEKFREE_IMU660R+     ----- -----
... A
  +--> imu660ra_simspi_r_reg_bytes/SEEKFREE_IMU660RA

imu660ra_simspi_r_reg_bytes/SEEKFREE_IMU+     ----- -----
... 660RA
  +--> imu660ra_simspi_wr_byte/SEEKFREE_IMU660RA

imu660ra_simspi_wr_byte/SEEKFREE_IMU660R+     ----- -----
... A

imu660ra_gyro_transition/SEEKFREE_IMU660+     ----- -----
... RA

ctimer_count_read/zf_tim                      ----- -----

L251 LINKER/LOCATER V4.66.93.0                                                        06/21/2025  18:27:27  PAGE 11


ctimer_count_clean/zf_tim                     ----- -----

update_gyro_angle_accumulator/control         ----- -----

FABS?_/FABS                                   ----- -----

update_encoder_speedup_value/control          ----- -----
  +--> FABS?_/FABS

straight_judge/element                        ----- -----
  +--> FABS?_/FABS

limit_function/Motor                          ----- -----

IncPID/PID                                    ----- -----

key_scan_cycle_pwm_state/control              ----- -----

out_pwm/out_control                           ----- -----
  +--> pwm_duty/zf_pwm

pwm_duty/zf_pwm                               ----- -----

*** NEW ROOT ********************************

TM4_Isr/isr                                   ----- -----
  +--> read_adc_average/control
  +--> limit_float/control
  +--> normalize_float/control
  +--> FABS?_/FABS
  +--> limit_function/Motor
  +--> buzzer_control_with_enable/control

read_adc_average/control                      ----- -----
  +--> adc_once/zf_adc
  +--> ?C?ULIDIV/?C?ULDIV

adc_once/zf_adc                               ----- -----

?C?ULIDIV/?C?ULDIV                            ----- -----

limit_float/control                           ----- -----

normalize_float/control                       ----- -----

buzzer_control_with_enable/control            ----- -----
  +--> FABS?_/FABS

*** NEW ROOT ********************************

?C_C51STARTUP?1                               ----- -----

*** NEW ROOT ********************************

?C_C51STARTUP                                 ----- -----

*** NEW ROOT ********************************

?C_C51STARTUP?3                               ----- -----
  +--> main/main

main/main                                     ----- -----
  +--> board_init/board
  +--> adc_init/zf_adc
  +--> delay_init/zf_delay
L251 LINKER/LOCATER V4.66.93.0                                                        06/21/2025  18:27:27  PAGE 12


  +--> imu660ra_init/SEEKFREE_IMU660RA
  +--> lcd_init/SEEKFREE_18TFT
  +--> pit_timer_ms/zf_tim
  +--> init/control
  +--> change_speed_Target_base/control
  +--> lcd_showstr/SEEKFREE_18TFT
  +--> key_scan/control
  +--> lcd_clear/SEEKFREE_18TFT
  +--> display_submenu_check/menu
  +--> display_motor/menu
  +--> display_t/menu
  +--> display_submenu_ee/menu
  +--> display_gyro/menu
  +--> display_g/menu
  +--> display_straight_param/menu
  +--> lcd_show_font/SEEKFREE_18TFT

board_init/board                              ----- -----
  +--> set_clk/board
  +--> delay_init/zf_delay
  +--> uart_init/zf_uart
  +--> EnableGlobalIRQ/board

set_clk/board                                 ----- -----

delay_init/zf_delay                           ----- -----
  +--> ?C?SLDIV/?C?SLDIV

?C?SLDIV/?C?SLDIV                             ----- -----
  +--> ?C?ULIDIV/?C?ULDIV

uart_init/zf_uart                             ----- -----
  +--> ?C?ULIDIV/?C?ULDIV

EnableGlobalIRQ/board                         ----- -----

adc_init/zf_adc                               ----- -----

imu660ra_init/SEEKFREE_IMU660RA               ----- -----
  +--> delay_ms/zf_delay
  +--> imu660ra_read_register/SEEKFREE_IMU660RA
  +--> imu660ra_self_check/SEEKFREE_IMU660RA
  +--> PRINTF/PRINTF
  +--> imu660ra_write_register/SEEKFREE_IMU660RA
  +--> imu660ra_write_registers/SEEKFREE_IMU660RA

delay_ms/zf_delay                             ----- -----

imu660ra_read_register/SEEKFREE_IMU660RA      ----- -----
  +--> imu660ra_simspi_r_reg_bytes/SEEKFREE_IMU660RA

imu660ra_self_check/SEEKFREE_IMU660RA         ----- -----
  +--> imu660ra_read_register/SEEKFREE_IMU660RA
  +--> delay_ms/zf_delay

PRINTF/PRINTF                                 0A5FH 0A86H
  +--> OUT/PRINTF

OUT/PRINTF                                    ----- -----
  +--> PUTCH/PRINTF

PUTCH/PRINTF                                  ----- -----
  +--> putchar/board
  +--> OUT/PRINTF

L251 LINKER/LOCATER V4.66.93.0                                                        06/21/2025  18:27:27  PAGE 13


putchar/board                                 ----- -----
  +--> uart_putchar/zf_uart

uart_putchar/zf_uart                          ----- -----

imu660ra_write_register/SEEKFREE_IMU660R+     ----- -----
... A
  +--> imu660ra_simspi_w_reg_byte/SEEKFREE_IMU660RA

imu660ra_simspi_w_reg_byte/SEEKFREE_IMU6+     ----- -----
... 60RA
  +--> imu660ra_simspi_wr_byte/SEEKFREE_IMU660RA

imu660ra_write_registers/SEEKFREE_IMU660+     ----- -----
... RA
  +--> imu660ra_simspi_w_reg_bytes/SEEKFREE_IMU660RA

imu660ra_simspi_w_reg_bytes/SEEKFREE_IMU+     ----- -----
... 660RA
  +--> imu660ra_simspi_wr_byte/SEEKFREE_IMU660RA

lcd_init/SEEKFREE_18TFT                       ----- -----
  +--> spi_init/zf_spi
  +--> delay_ms/zf_delay
  +--> lcd_writeIndex/SEEKFREE_18TFT
  +--> lcd_writeData/SEEKFREE_18TFT
  +--> lcd_clear/SEEKFREE_18TFT

spi_init/zf_spi                               ----- -----
  +--> gpio_mode/zf_gpio

gpio_mode/zf_gpio                             ----- -----

lcd_writeIndex/SEEKFREE_18TFT                 ----- -----
  +--> spi_mosi/zf_spi

spi_mosi/zf_spi                               ----- -----

lcd_writeData/SEEKFREE_18TFT                  ----- -----
  +--> spi_mosi/zf_spi

lcd_clear/SEEKFREE_18TFT                      ----- -----
  +--> lcd_set_region/SEEKFREE_18TFT
  +--> lcd_writedata_16bit/SEEKFREE_18TFT

lcd_set_region/SEEKFREE_18TFT                 ----- -----
  +--> lcd_writeIndex/SEEKFREE_18TFT
  +--> lcd_writeData/SEEKFREE_18TFT

lcd_writedata_16bit/SEEKFREE_18TFT            ----- -----
  +--> spi_mosi/zf_spi

pit_timer_ms/zf_tim                           ----- -----
  +--> ?C?SLDIV/?C?SLDIV

init/control                                  ----- -----
  +--> adc_init/zf_adc
  +--> delay_ms/zf_delay
  +--> ctimer_count_init/zf_tim
  +--> pwm_init/zf_pwm
  +--> wireless_uart_init/SEEKFREE_WIRELESS
  +--> gpio_mode/zf_gpio

ctimer_count_init/zf_tim                      ----- -----

L251 LINKER/LOCATER V4.66.93.0                                                        06/21/2025  18:27:27  PAGE 14


pwm_init/zf_pwm                               ----- -----
  +--> pwm_set_gpio/zf_pwm
  +--> ?C?ULIDIV/?C?ULDIV

pwm_set_gpio/zf_pwm                           ----- -----
  +--> gpio_mode/zf_gpio

wireless_uart_init/SEEKFREE_WIRELESS          ----- -----
  +--> wireless_uart_callback/SEEKFREE_WIRELESS
  +--> fifo_init/zf_fifo
  +--> uart_init/zf_uart

wireless_uart_callback/SEEKFREE_WIRELESS      ----- -----
  +--> fifo_write_buffer/zf_fifo

fifo_write_buffer/zf_fifo                     ----- -----
  +--> memcpy?_/memcpy
  +--> fifo_head_offset/zf_fifo

memcpy?_/memcpy                               ----- -----

fifo_head_offset/zf_fifo                      ----- -----

fifo_init/zf_fifo                             ----- -----

change_speed_Target_base/control              ----- -----

lcd_showstr/SEEKFREE_18TFT                    ----- -----
  +--> lcd_showchar/SEEKFREE_18TFT

lcd_showchar/SEEKFREE_18TFT                   ----- -----
  +--> lcd_set_region/SEEKFREE_18TFT
  +--> lcd_writedata_16bit/SEEKFREE_18TFT

key_scan/control                              ----- -----
  +--> delay_ms/zf_delay

display_submenu_check/menu                    ----- -----
  +--> lcd_showstr/SEEKFREE_18TFT
  +--> lcd_showuint16/SEEKFREE_18TFT
  +--> lcd_showfloat/SEEKFREE_18TFT
  +--> key_scan/control
  +--> adjust_parameter_by_key_float/control

lcd_showuint16/SEEKFREE_18TFT                 ----- -----
  +--> lcd_showchar/SEEKFREE_18TFT

lcd_showfloat/SEEKFREE_18TFT                  ----- -----
  +--> zf_sprintf/SEEKFREE_PRINTF
  +--> lcd_showstr/SEEKFREE_18TFT

zf_sprintf/SEEKFREE_PRINTF                    ----- -----
  +--> number_conversion_ascii/SEEKFREE_PRINTF
  +--> printf_reverse_order/SEEKFREE_PRINTF
  +--> memcpy?_/memcpy

number_conversion_ascii/SEEKFREE_PRINTF       ----- -----
  +--> ?C?SLDIV/?C?SLDIV
  +--> ?C?ULIDIV/?C?ULDIV

printf_reverse_order/SEEKFREE_PRINTF          ----- -----

adjust_parameter_by_key_float/control         ----- -----

display_motor/menu                            ----- -----
L251 LINKER/LOCATER V4.66.93.0                                                        06/21/2025  18:27:27  PAGE 15


  +--> lcd_clear/SEEKFREE_18TFT
  +--> adjust_parameter_by_key_float/control
  +--> lcd_showstr/SEEKFREE_18TFT
  +--> lcd_showfloat/SEEKFREE_18TFT
  +--> lcd_showuint16/SEEKFREE_18TFT

display_t/menu                                ----- -----
  +--> key_scan/control
  +--> lcd_clear/SEEKFREE_18TFT
  +--> adjust_parameter_by_key_float/control
  +--> lcd_showstr/SEEKFREE_18TFT
  +--> lcd_showfloat/SEEKFREE_18TFT
  +--> FABS?_/FABS

display_submenu_ee/menu                       ----- -----
  +--> key_scan/control
  +--> lcd_clear/SEEKFREE_18TFT
  +--> adjust_parameter_by_key_float/control
  +--> lcd_showfloat/SEEKFREE_18TFT
  +--> lcd_showstr/SEEKFREE_18TFT

display_gyro/menu                             ----- -----
  +--> lcd_clear/SEEKFREE_18TFT
  +--> adjust_parameter_by_key_float/control
  +--> lcd_showfloat/SEEKFREE_18TFT
  +--> lcd_showstr/SEEKFREE_18TFT

display_g/menu                                ----- -----
  +--> key_scan/control
  +--> lcd_clear/SEEKFREE_18TFT
  +--> adjust_parameter_by_key_float/control
  +--> lcd_showstr/SEEKFREE_18TFT
  +--> lcd_showfloat/SEEKFREE_18TFT

display_straight_param/menu                   ----- -----
  +--> key_scan/control
  +--> lcd_clear/SEEKFREE_18TFT
  +--> adjust_parameter_by_key_float/control
  +--> lcd_showstr/SEEKFREE_18TFT
  +--> lcd_showfloat/SEEKFREE_18TFT

lcd_show_font/SEEKFREE_18TFT                  ----- -----
  +--> lcd_set_region/SEEKFREE_18TFT
  +--> lcd_writedata_16bit/SEEKFREE_18TFT

*** NEW ROOT ********************************

?C_C51STARTUP?2                               ----- -----



PUBLIC SYMBOLS OF MODULE:  .\Out_File\SEEKFREE (board)


      VALUE       CLASS    TYPE      PUBLIC SYMBOL NAME
      =================================================
      00000D00H   EDATA    BYTE      ?buzzer_control_with_enable?BYTE
      00FF2ACDH   CODE     ---       ?C?BMOVENP
      00FF2ACBH   CODE     ---       ?C?BMOVENP8
      00FF239DH   CODE     NEAR LAB  ?C?CASTF
      000000FFH   NUMBER   ---       ?C?CODESEG
      00FF236AH   CODE     NEAR LAB  ?C?FCASTC
      00FF2365H   CODE     NEAR LAB  ?C?FCASTI
      00FF2360H   CODE     NEAR LAB  ?C?FCASTL
      00FF2133H   CODE     ---       ?C?FPADD
L251 LINKER/LOCATER V4.66.93.0                                                        06/21/2025  18:27:27  PAGE 16


      00FF230EH   CODE     ---       ?C?FPCMP
      00FF230CH   CODE     ---       ?C?FPCMP3
      00FF28B0H   CODE     ---       ?C?FPCONVERT
      00FF228BH   CODE     ---       ?C?FPDIV
      00FF2415H   CODE     ---       ?C?FPGETOPN2
      00FF21EBH   CODE     ---       ?C?FPMUL
      00FF2452H   CODE     ---       ?C?FPNANRESULT
      00FF2352H   CODE     ---       ?C?FPNEG
      00FF245AH   CODE     ---       ?C?FPOVERFLOW
      00FF242EH   CODE     ---       ?C?FPRESULT
      00FF2444H   CODE     ---       ?C?FPRESULT2
      00FF2968H   CODE     ---       ?C?FPROUND
      00FF2130H   CODE     ---       ?C?FPSUB
      00FF2457H   CODE     ---       ?C?FPUNDERFLOW
      00FF29DBH   CODE     ---       ?C?FTNPWR
      00FF89A8H   CODE     ---       ?C?INITEDATA
      00FF9A9FH   HCONST   WORD      ?C?INITEDATA_END
      00FF89D1H   CODE     ---       ?C?INITHDATA
      00FF9EB9H   HCONST   WORD      ?C?INITHDATA_END
      00FF2493H   CODE     ---       ?C?PRNFMT
      00FF2A12H   CODE     ---       ?C?SIDIV
      00FF2A97H   CODE     NEAR LAB  ?C?SLDIV
      00FF0000H   CODE     ---       ?C?STARTUP
      00FF2A46H   CODE     NEAR LAB  ?C?ULDIV
      00FF2A44H   CODE     NEAR LAB  ?C?ULIDIV
      00000001H   NUMBER   ---       ?C?XDATASEG
      00FF0000H   CODE     ---       ?C_STARTUP
      00000BEEH   EDATA    BYTE      ?data_conversion?BYTE
      00000C86H   EDATA    BYTE      ?display_motor?BYTE
      00000B74H   EDATA    BYTE      ?fifo_init?BYTE
      00000008H   EDATA    BYTE      ?fifo_read_buffer?BYTE
      00000C32H   EDATA    BYTE      ?fifo_read_element?BYTE
      00000AE2H   EDATA    BYTE      ?fifo_read_tail_buffer?BYTE
      00000B62H   EDATA    BYTE      ?fifo_write_buffer?BYTE
      00000CAAH   EDATA    BYTE      ?gyro_lowpass_filter?BYTE
      00000BA4H   EDATA    BYTE      ?GyroPositionPID?BYTE
      00000CCEH   EDATA    BYTE      ?iap_read_bytes?BYTE
      00000CD8H   EDATA    BYTE      ?iap_write_bytes?BYTE
      00000B94H   EDATA    BYTE      ?IncPID?BYTE
      00000B3AH   EDATA    BYTE      ?lcd_show_font?BYTE
      00000C4AH   EDATA    BYTE      ?lcd_showfloat?BYTE
      00000C3EH   EDATA    BYTE      ?lcd_showfloat_simspi?BYTE
      00000B84H   EDATA    BYTE      ?limit_float?BYTE
      00000C92H   EDATA    BYTE      ?limit_function?BYTE
      00000C7AH   EDATA    BYTE      ?low_pass_filter?BYTE
      00000AFAH   EDATA    BYTE      ?normalize_float?BYTE
      00000B4EH   EDATA    BYTE      ?number_conversion_ascii?BYTE
      00000C9EH   EDATA    BYTE      ?PositionPID?BYTE
      00000A87H   EDATA    ---       ?printf?BYTE
      00000B26H   EDATA    BYTE      ?pwm_freq?BYTE
      00000B12H   EDATA    BYTE      ?pwm_init?BYTE
      00000AA9H   EDATA    BYTE      ?seekfree_assistant_camera_boundary_config?BYTE
      00000BC3H   EDATA    BYTE      ?seekfree_assistant_camera_data_send?BYTE
      00000D14H   EDATA    BYTE      ?seekfree_assistant_camera_information_config?BYTE
      00000C18H   EDATA    BYTE      ?spi_init?BYTE
      00000BE0H   EDATA    BYTE      ?uart_init?BYTE
      00000CE2H   EDATA    BYTE      ?uart_putbuff?BYTE
      000008AEH   EDATA    BYTE      ?zf_sprintf?BYTE
      00000734H   EDATA    WORD      a
      00FF8198H   CODE     ---       acquire_sensor_data
      000009FEH   EDATA    INT       active_submenu
*SFR* 000000BCH   DATA     BYTE      ADC_CONTR
      00FF80E3H   CODE     ---       adc_init
      00FF8CAFH   CODE     ---       adc_once
*SFR* 000000BDH   DATA     BYTE      ADC_RES
L251 LINKER/LOCATER V4.66.93.0                                                        06/21/2025  18:27:27  PAGE 17


*SFR* 000000BEH   DATA     BYTE      ADC_RESL
      00000C6FH   EDATA    FLOAT     adc_vbat
*SFR* 000000DEH   DATA     BYTE      ADCCFG
      00000718H   EDATA    ---       adcdata_aver
      00FF8E01H   CODE     ---       adjust_parameter_by_key_float
      000004ECH   EDATA    ---       ang_pid
      00000827H   EDATA    FLOAT     angle_error
      0000084FH   EDATA    FLOAT     Angle_x
*SFR* 000000EFH   DATA     BYTE      AUXINTIF
*SFR* 0000008EH   DATA     BYTE      AUXR
*SFR* 00000097H   DATA     BYTE      AUXR2
      0000073EH   EDATA    WORD      b
      0000081DH   EDATA    FLOAT     base_speed
      00FF8457H   CODE     ---       board_init
      00000E3DH   EDATA    ---       busy
      00FF90CBH   CODE     ---       buzzer_control_with_enable
*DEL*:00000000H   CODE     ---       calculate_dynamic_target_speed_quadratic
*DEL*:00000000H   CODE     ---       Calculate_Weight_Mid
*SFR* 000000F1H   DATA     BYTE      CANICR
*DEL*:00000000H   CODE     ---       change_speed_Target
      00FF9162H   CODE     ---       change_speed_Target_base
*DEL*:00000000H   CODE     ---       check_hall_sensor
      00000A8CH   EDATA    WORD      cir_angle_flag
      00000A97H   EDATA    BYTE      cir_flag
*DEL*:00000000H   CODE     ---       Circle_detect
*SFR* 000000EAH   DATA     BYTE      CKCON
*SFR* 000000E6H   DATA     BYTE      CMPCR1
*SFR* 000000E7H   DATA     BYTE      CMPCR2
*DEL*:00000000H   CODE     ---       CRC_CHECK
*DEL*:00000000H   CODE     ---       cricle_cl
      00FF8BA2H   CODE     ---       ctimer_count_clean
      00FF8D05H   CODE     ---       ctimer_count_init
      00FF824DH   CODE     ---       ctimer_count_read
      0000086DH   EDATA    FLOAT     current_angle
      00000840H   EDATA    BYTE      current_key
      000006F5H   EDATA    FLOAT     current_l_pwm_duty
      00000770H   EDATA    FLOAT     current_l_pwm_duty_ang_turn
      00000736H   EDATA    FLOAT     current_l_pwm_duty_turn
      000006E6H   EDATA    FLOAT     current_l_pwm_inc
      00000705H   EDATA    FLOAT     current_l_pwm_inc_last
      000009DFH   EDATA    INT       current_menu_level
      000006F9H   EDATA    FLOAT     current_r_pwm_duty
      000006BCH   EDATA    FLOAT     current_r_pwm_duty_ang_turn
      00000740H   EDATA    FLOAT     current_r_pwm_duty_turn
      000006EAH   EDATA    FLOAT     current_r_pwm_inc
      00000711H   EDATA    FLOAT     current_r_pwm_inc_last
*DEL*:00000000H   CODE     ---       data_conversion
      000000E9H   EDATA    FLOAT     data_Get
      00000021H   EDATA    ---       DataBuff
      00FF8FB8H   CODE     ---       delay_init
      00FF9037H   CODE     ---       delay_ms
*DEL*:00000000H   CODE     ---       delay_us
      000006D1H   EDATA    FLOAT     dir_enlarge
      0000073AH   EDATA    FLOAT     dir_loop_limit
*DEL*:00000000H   CODE     ---       DisableGlobalIRQ
      00FF4A21H   CODE     ---       display_g
      00FF4650H   CODE     ---       display_gyro
*DEL*:00000000H   CODE     ---       display_main_menu
      00000C6EH   EDATA    BYTE      display_mode
      00FF64CBH   CODE     ---       display_motor
      00FF6E88H   CODE     ---       display_straight_param
      00FF6A3CH   CODE     ---       display_submenu_check
      00FF7270H   CODE     ---       display_submenu_ee
      00FF5193H   CODE     ---       display_t
      00FF00A6H   CODE     ---       dl1b_default_configuration
L251 LINKER/LOCATER V4.66.93.0                                                        06/21/2025  18:27:27  PAGE 18


*SFR* 000000A8H.7 DATA     BIT       EA
*SFR* 000000BAH.7 DATA     BIT       EAXFR
*DEL*:00000000H   CODE     ---       eeprom_trig
      00FF0006H   CODE     ---       EnableGlobalIRQ
      000006CDH   EDATA    FLOAT     encoder_charge_element
      00000716H   EDATA    CHAR      encoder_charge_sign
      0000070DH   EDATA    FLOAT     encoder_cross_element
      000006D5H   EDATA    CHAR      encoder_cross_sign
      00000AA3H   EDATA    BYTE      encoder_sign
      000006DAH   EDATA    FLOAT     encoder_speedup_element
      00000717H   EDATA    CHAR      encoder_speedup_sign
      000006C0H   EDATA    FLOAT     encoder_straight_element
      00000715H   EDATA    CHAR      encoder_straight_sign
      00000750H   EDATA    FLOAT     err_D
      00000760H   EDATA    FLOAT     err_H
      00000709H   EDATA    FLOAT     err_HM
      0000076CH   EDATA    FLOAT     err_M
      000006DEH   EDATA    FLOAT     err_t
      000006C9H   EDATA    FLOAT     err_X
      000006EEH   EDATA    FLOAT     error
*SFR* 000000A8H.4 DATA     BIT       ES
*SFR* 000000A8H.1 DATA     BIT       ET0
*SFR* 000000A8H.3 DATA     BIT       ET1
*SFR* 000000A8H.0 DATA     BIT       EX0
*SFR* 000000A8H.2 DATA     BIT       EX1
*DEL*:00000000H   CODE     ---       exit_init
*SFR* 000000D0H.5 DATA     BIT       F0
      00FF2406H   CODE     NEAR LAB  fabs?_
*DEL*:00000000H   CODE     ---       fifo_clear
      00FF872EH   CODE     ---       fifo_init
*DEL*:00000000H   CODE     ---       fifo_read_buffer
*DEL*:00000000H   CODE     ---       fifo_read_element
*DEL*:00000000H   CODE     ---       fifo_read_tail_buffer
*DEL*:00000000H   CODE     ---       fifo_used
      00FF553BH   CODE     ---       fifo_write_buffer
*DEL*:00000000H   CODE     ---       fifo_write_element
      00000A89H   EDATA    WORD      flag_incir
      00FF5F20H   CODE     ---       Get_Data
      00FF2AF0H   CODE     ---       gpio_mode
*DEL*:00000000H   CODE     ---       gpio_pull_set
      0000084BH   EDATA    ---       gyro_data
*DEL*:00000000H   CODE     ---       gyro_lowpass_filter
      00000548H   EDATA    ---       Gyro_PID
      00000847H   EDATA    FLOAT     gyro_pitch
      00000864H   EDATA    FLOAT     gyro_roll
      00000748H   EDATA    FLOAT     gyro_roll_cross
      000006C5H   EDATA    FLOAT     gyro_roll_sign_cross
      000006D6H   EDATA    FLOAT     gyro_roll_sign_rign
*DEL*:00000000H   CODE     ---       GyroPositionPID
      00000A91H   EDATA    WORD      hall_count
      00000A93H   EDATA    WORD      hall_timer_count
      00000A98H   EDATA    BYTE      hall_triggered
      00FF9BA1H   HCONST   ---       Hua_32x32
      00000869H   EDATA    WORD      i
*SFR* 000000F6H   DATA     BYTE      IAP_ADDRE
*SFR* 000000C3H   DATA     BYTE      IAP_ADDRH
*SFR* 000000C4H   DATA     BYTE      IAP_ADDRL
*SFR* 000000C5H   DATA     BYTE      IAP_CMD
*SFR* 000000C7H   DATA     BYTE      IAP_CONTR
*SFR* 000000C2H   DATA     BYTE      IAP_DATA
*DEL*:00000000H   CODE     ---       iap_erase_page
*DEL*:00000000H   CODE     ---       iap_get_cmd_state
*DEL*:00000000H   CODE     ---       iap_idle
*DEL*:00000000H   CODE     ---       iap_init
*DEL*:00000000H   CODE     ---       iap_read_bytes
L251 LINKER/LOCATER V4.66.93.0                                                        06/21/2025  18:27:27  PAGE 19


*DEL*:00000000H   CODE     ---       iap_set_tps
*SFR* 000000F5H   DATA     BYTE      IAP_TPS
*SFR* 000000C6H   DATA     BYTE      IAP_TRIG
*DEL*:00000000H   CODE     ---       iap_write_bytes
*SFR* 000000A8H   DATA     BYTE      IE
*SFR* 000000AFH   DATA     BYTE      IE2
*DEL*:00000000H   CODE     ---       imu660ra_acc_transition
      00000C62H   EDATA    INT       imu660ra_acc_x
      00000C64H   EDATA    INT       imu660ra_acc_y
      00000C66H   EDATA    INT       imu660ra_acc_z
      00FF012DH   CODE     ---       imu660ra_config_file
*DEL*:00000000H   CODE     ---       imu660ra_get_acc
      00FF8D59H   CODE     ---       imu660ra_get_gyro
      00FF83AFH   CODE     ---       imu660ra_gyro_transition
      00000C68H   EDATA    INT       imu660ra_gyro_x
      00000C6AH   EDATA    INT       imu660ra_gyro_y
      00000C6CH   EDATA    INT       imu660ra_gyro_z
      00FF8301H   CODE     ---       imu660ra_init
      00FF7435H   CODE     ---       IncPID
      00FF7F67H   CODE     ---       init
      00FF000EH   CODE     ---       INT0_Isr
      00FF000AH   CODE     ---       INT1_Isr
      00FF0016H   CODE     ---       INT2_Isr
      00FF001EH   CODE     ---       INT3_Isr
      00FF0046H   CODE     ---       INT4_Isr
*SFR* 0000008FH   DATA     BYTE      INTCLKO
*SFR* 000000B8H   DATA     BYTE      IP
*SFR* 000000B5H   DATA     BYTE      IP2
*SFR* 000000B6H   DATA     BYTE      IP2H
*SFR* 000000DFH   DATA     BYTE      IP3
*SFR* 000000EEH   DATA     BYTE      IP3H
*SFR* 000000B7H   DATA     BYTE      IPH
*SFR* 0000009DH   DATA     BYTE      IRCBAND
*SFR* 0000009FH   DATA     BYTE      IRTRIM
*SFR* 00000088H.0 DATA     BIT       IT0
*SFR* 00000088H.2 DATA     BIT       IT1
      0000086BH   EDATA    WORD      j
      00000833H   EDATA    WORD      k1
      00000C75H   EDATA    CHAR      key_mode
      000009F9H   EDATA    BYTE      key_mode_local
      00FF7BCCH   CODE     ---       key_scan
      00FF86A1H   CODE     ---       key_scan_cycle_pwm_state
      00000C74H   EDATA    BYTE      key_value
      00000A02H   EDATA    BYTE      key_value_test
      00000857H   EDATA    FLOAT     L
      00000A47H   EDATA    FLOAT     l_encoder
      00000A4FH   EDATA    FLOAT     l_encoder_last
      00000600H   EDATA    ---       L_pid
      00000A3FH   EDATA    FLOAT     l_pwm
      00000744H   EDATA    FLOAT     l_pwm_inc_raw
      00000879H   EDATA    FLOAT     L_raw
      00000A37H   EDATA    FLOAT     l_speed_now
      00000868H   EDATA    BYTE      last_key_state
      00FF8C58H   CODE     ---       lcd_clear
*DEL*:00000000H   CODE     ---       lcd_clear_simspi
*DEL*:00000000H   CODE     ---       lcd_drawpoint
*DEL*:00000000H   CODE     ---       lcd_drawpoint_simspi
      00FF707DH   CODE     ---       lcd_init
*DEL*:00000000H   CODE     ---       lcd_init_simspi
      00FF8ADFH   CODE     ---       lcd_set_region
*DEL*:00000000H   CODE     ---       lcd_set_region_simspi
      00FF787BH   CODE     ---       lcd_show_font
      00FF8027H   CODE     ---       lcd_showchar
*DEL*:00000000H   CODE     ---       lcd_showchar_simspi
      00FF75E2H   CODE     ---       lcd_showfloat
L251 LINKER/LOCATER V4.66.93.0                                                        06/21/2025  18:27:27  PAGE 20


*DEL*:00000000H   CODE     ---       lcd_showfloat_simspi
*DEL*:00000000H   CODE     ---       lcd_showint16
*DEL*:00000000H   CODE     ---       lcd_showint16_simspi
*DEL*:00000000H   CODE     ---       lcd_showint32
*DEL*:00000000H   CODE     ---       lcd_showint32_simspi
*DEL*:00000000H   CODE     ---       lcd_showint8
*DEL*:00000000H   CODE     ---       lcd_showint8_simspi
      00FF8A75H   CODE     ---       lcd_showstr
*DEL*:00000000H   CODE     ---       lcd_showstr_simspi
      00FF7DC8H   CODE     ---       lcd_showuint16
*DEL*:00000000H   CODE     ---       lcd_showuint16_simspi
*DEL*:00000000H   CODE     ---       lcd_showuint8
*DEL*:00000000H   CODE     ---       lcd_showuint8_simspi
      00FF9219H   CODE     ---       lcd_writeData
      00FF909FH   CODE     ---       lcd_writedata_16bit
*DEL*:00000000H   CODE     ---       lcd_writeData_16bit_simspi
*DEL*:00000000H   CODE     ---       lcd_writeData_simspi
      00FF9204H   CODE     ---       lcd_writeIndex
*DEL*:00000000H   CODE     ---       lcd_writeIndex_simspi
      000006F2H   EDATA    ---       left_stall
      00FF8F33H   CODE     ---       limit_float
      00FF906CH   CODE     ---       limit_function
*DEL*:00000000H   CODE     ---       limit_range
*DEL*:00000000H   CODE     ---       LimitAngle
*SFR* 000000F9H   DATA     BYTE      LINICR
      0000082BH   EDATA    FLOAT     LM
      00000758H   EDATA    FLOAT     LM_x
      0000075CH   EDATA    FLOAT     LM_y
*DEL*:00000000H   CODE     ---       load_all_params_from_flash
*DEL*:00000000H   CODE     ---       low_pass_filter
      00FF5C45H   CODE     ---       main
      000009E1H   EDATA    ---       main_menu_options
      00000A00H   EDATA    INT       main_menu_selection
      0000083EH   EDATA    WORD      max_AD
      00FF005EH   CODE     ---       memcpy?_
      00FF91EAH   CODE     ---       memset?_
      00000C73H   EDATA    BYTE      menu_sign
      00FF9AA1H   HCONST   ---       Mian_32x32
      0000085FH   EDATA    FLOAT     MID
      0000083CH   EDATA    WORD      min_AD
      0000074CH   EDATA    FLOAT     mot_inc
      00000701H   EDATA    FLOAT     mot_inc_element
      00000A5BH   EDATA    FLOAT     motor_inc
      00FF87B1H   CODE     ---       normalize_float
      00FF7AB5H   CODE     ---       number_conversion_ascii
*DEL*:00000000H   CODE     ---       NVIC_SetPriority
      00FF39EDH   CODE     ---       oled_6x8
      00FF774BH   CODE     ---       out_pwm
*SFR* 00000080H   DATA     BYTE      P0
*SFR* 00000080H.7 DATA     BIT       P07
*SFR* 00000094H   DATA     BYTE      P0M0
*SFR* 00000093H   DATA     BYTE      P0M1
*SFR* 00000090H   DATA     BYTE      P1
*SFR* 00000092H   DATA     BYTE      P1M0
*SFR* 00000091H   DATA     BYTE      P1M1
*SFR* 000000A0H   DATA     BYTE      P2
*SFR* 000000A0H.0 DATA     BIT       P20
*SFR* 000000A0H.1 DATA     BIT       P21
*SFR* 000000A0H.2 DATA     BIT       P22
*SFR* 000000A0H.3 DATA     BIT       P23
*SFR* 000000A0H.5 DATA     BIT       P25
*SFR* 00000096H   DATA     BYTE      P2M0
*SFR* 00000095H   DATA     BYTE      P2M1
*SFR* 000000B0H   DATA     BYTE      P3
*SFR* 000000B0H.5 DATA     BIT       P35
L251 LINKER/LOCATER V4.66.93.0                                                        06/21/2025  18:27:27  PAGE 21


*SFR* 000000B0H.6 DATA     BIT       P36
*SFR* 000000B2H   DATA     BYTE      P3M0
*SFR* 000000B1H   DATA     BYTE      P3M1
*SFR* 000000C0H   DATA     BYTE      P4
*SFR* 000000C0H.0 DATA     BIT       P40
*SFR* 000000C0H.1 DATA     BIT       P41
*SFR* 000000C0H.2 DATA     BIT       P42
*SFR* 000000C0H.3 DATA     BIT       P43
*SFR* 000000C0H.5 DATA     BIT       P45
*SFR* 000000C0H.6 DATA     BIT       P46
*SFR* 000000B4H   DATA     BYTE      P4M0
*SFR* 000000B3H   DATA     BYTE      P4M1
*SFR* 000000C8H   DATA     BYTE      P5
*SFR* 000000C8H.2 DATA     BIT       P52
*SFR* 000000C8H.3 DATA     BIT       P53
*SFR* 000000CAH   DATA     BYTE      P5M0
*SFR* 000000C9H   DATA     BYTE      P5M1
*SFR* 000000E8H   DATA     BYTE      P6
*SFR* 000000CCH   DATA     BYTE      P6M0
*SFR* 000000CBH   DATA     BYTE      P6M1
*SFR* 000000F8H   DATA     BYTE      P7
*SFR* 000000F8H.5 DATA     BIT       P75
*SFR* 000000F8H.6 DATA     BIT       P76
*SFR* 000000F8H.7 DATA     BIT       P77
*SFR* 000000E2H   DATA     BYTE      P7M0
*SFR* 000000E1H   DATA     BYTE      P7M1
*SFR* 000000A2H   DATA     BYTE      P_SW1
*SFR* 000000BAH   DATA     BYTE      P_SW2
*SFR* 000000BBH   DATA     BYTE      P_SW3
*SFR* 00000087H   DATA     BYTE      PCON
      00FF7CE3H   CODE     ---       pit_timer_ms
      0000082FH   EDATA    FLOAT     pitch
      00000875H   EDATA    FLOAT     pitch_accel
*DEL*:00000000H   CODE     ---       PositionPID
      00FF23DAH   CODE     NEAR LAB  printf
      00FF84EEH   CODE     ---       printf_reverse_order
*SFR* 000000D0H   DATA     BYTE      PSW
      00FF922EH   CODE     ---       putchar
      00FF9EDBH   HCONST   ---       PWM_ARR_ADDR
      00FF9EE3H   HCONST   ---       PWM_CCER_ADDR
      00FF9EF3H   HCONST   ---       PWM_CCMR_ADDR
      00FF9EBBH   HCONST   ---       PWM_CCR_ADDR
      00FF799DH   CODE     ---       pwm_duty
*DEL*:00000000H   CODE     ---       pwm_freq
      00FF4276H   CODE     ---       pwm_init
      00FF4DDBH   CODE     ---       pwm_set_gpio
      00000863H   EDATA    BYTE      pwm_state
      0000083BH   EDATA    CHAR      pwm_state_charge
      0000081CH   EDATA    BYTE      Pwmout
      0000085BH   EDATA    FLOAT     R
      00000A4BH   EDATA    FLOAT     r_encoder
      00000A57H   EDATA    FLOAT     r_encoder_last
      0000065CH   EDATA    ---       R_pid
      00000A43H   EDATA    FLOAT     r_pwm
      00000754H   EDATA    FLOAT     r_pwm_inc_raw
      0000087DH   EDATA    FLOAT     R_raw
      00000A3BH   EDATA    FLOAT     r_speed_now
      00FF882FH   CODE     ---       read_adc_average
      000006E3H   EDATA    ---       right_stall
      000006FDH   EDATA    FLOAT     ring_out_element
      000006C4H   EDATA    CHAR      ring_out_sign
      00000835H   EDATA    FLOAT     RM
      00000768H   EDATA    FLOAT     RM_x
      00000774H   EDATA    FLOAT     RM_y
      00000843H   EDATA    FLOAT     roll
L251 LINKER/LOCATER V4.66.93.0                                                        06/21/2025  18:27:27  PAGE 22


      00000823H   EDATA    FLOAT     roll_accel
      00000764H   EDATA    FLOAT     Roll_x
*SFR* 000000FFH   DATA     BYTE      RSTCFG
      000000EDH   EDATA    ---       RxBuffer
      000004EAH   EDATA    WORD      RxLine
*SFR* 0000009BH   DATA     BYTE      S2BUF
*SFR* 0000009AH   DATA     BYTE      S2CON
*SFR* 000000ADH   DATA     BYTE      S3BUF
*SFR* 000000ACH   DATA     BYTE      S3CON
*SFR* 000000FEH   DATA     BYTE      S4BUF
*SFR* 000000FDH   DATA     BYTE      S4CON
      00000821H   EDATA    INT       sample_count
*DEL*:00000000H   CODE     ---       save_all_params_to_flash
*SFR* 00000099H   DATA     BYTE      SBUF
*SFR* 00000098H   DATA     BYTE      SCON
*DEL*:00000000H   CODE     ---       seekfree_assistant_camera_boundary_config
*DEL*:00000000H   CODE     ---       seekfree_assistant_camera_data_send
*DEL*:00000000H   CODE     ---       seekfree_assistant_camera_dot_send
*DEL*:00000000H   CODE     ---       seekfree_assistant_camera_information_config
*DEL*:00000000H   CODE     ---       seekfree_assistant_camera_send
*DEL*:00000000H   CODE     ---       seekfree_assistant_data_analysis
*DEL*:00000000H   CODE     ---       seekfree_assistant_init
      00010000H   XDATA    ---       seekfree_assistant_oscilloscope_data
*DEL*:00000000H   CODE     ---       seekfree_assistant_oscilloscope_send
      00010043H   XDATA    ---       seekfree_assistant_parameter
      0001003BH   XDATA    ---       seekfree_assistant_parameter_update_flag
      00000E86H   EDATA    ---       seekfree_assistant_receive
      00000E88H   EDATA    ---       seekfree_assistant_transfer
      00FF6C82H   CODE     ---       set_clk
*DEL*:00000000H   CODE     ---       set_target_speeds
*DEL*:00000000H   CODE     ---       showimage
*SFR* 000000CEH   DATA     BYTE      SPCTL
*SFR* 000000CFH   DATA     BYTE      SPDAT
      00000A8EH   EDATA    BYTE      speed_ctrl_flag
      0000072CH   EDATA    FLOAT     speed_damping
      00000A53H   EDATA    FLOAT     speed_now
      00000A9DH   EDATA    BYTE      speed_strategy_active
*DEL*:00000000H   CODE     ---       spi_change_mode
*DEL*:00000000H   CODE     ---       spi_change_pin
      00FF7E99H   CODE     ---       spi_init
      00FF9240H   CODE     ---       spi_mosi
*SFR* 000000CDH   DATA     BYTE      SPSTAT
      00000839H   EDATA    INT       state
      00000A99H   EDATA    FLOAT     straight_err_threshold
      00000AA2H   EDATA    CHAR      straight_flag
      00000A9EH   EDATA    FLOAT     straight_integral_threshold
      00FF8612H   CODE     ---       straight_judge
      00000E56H   EDATA    LONG      sys_clk
*SFR* 000000D6H   DATA     BYTE      T2H
*SFR* 000000D7H   DATA     BYTE      T2L
*SFR* 000000D4H   DATA     BYTE      T3H
*SFR* 000000D5H   DATA     BYTE      T3L
*SFR* 000000D2H   DATA     BYTE      T4H
*SFR* 000000D3H   DATA     BYTE      T4L
*SFR* 000000DDH   DATA     BYTE      T4T3M
      00FF9B21H   HCONST   ---       Tang_32x32
      00000871H   EDATA    FLOAT     target_angle
*SFR* 00000088H   DATA     BYTE      TCON
      00000841H   EDATA    WORD      temp
      00000A95H   EDATA    WORD      temp_flag
      00000A8FH   EDATA    WORD      temp_flag_speed
      00000A87H   EDATA    INT       temp_t
      00FF33FDH   CODE     ---       tft_ascii
*SFR* 0000008CH   DATA     BYTE      TH0
*SFR* 0000008DH   DATA     BYTE      TH1
L251 LINKER/LOCATER V4.66.93.0                                                        06/21/2025  18:27:27  PAGE 23


      00000730H   EDATA    FLOAT     time_speedup_element
      000006E2H   EDATA    CHAR      time_speedup_sign
*SFR* 0000008AH   DATA     BYTE      TL0
*SFR* 0000008BH   DATA     BYTE      TL1
      00FF0012H   CODE     ---       TM0_Isr
      00FF58CDH   CODE     ---       TM1_Isr
      00FF61F8H   CODE     ---       TM4_Isr
*SFR* 00000089H   DATA     BYTE      TMOD
*SFR* 00000088H.4 DATA     BIT       TR0
*SFR* 00000088H.6 DATA     BIT       TR1
      00000853H   EDATA    FLOAT     turn_control_output
      000005A4H   EDATA    ---       Turn_PID
*DEL*:00000000H   CODE     ---       turn_PstPID
      00FF8F76H   CODE     ---       UART1_Isr
      00FF91B6H   CODE     ---       UART2_Isr
      00FF91D0H   CODE     ---       UART3_Isr
      00FF8583H   CODE     ---       UART4_Isr
      00FF678AH   CODE     ---       uart_init
*DEL*:00000000H   CODE     ---       uart_putbuff
      00FF891CH   CODE     ---       uart_putchar
*DEL*:00000000H   CODE     ---       uart_putstr
      00FF8B43H   CODE     ---       update_encoder_speedup_value
      00FF8EE9H   CODE     ---       update_gyro_angle_accumulator
      00FF88A6H   CODE     ---       USART_PID_Adjust
*SFR* 000000F4H   DATA     BYTE      USBCON
      00000C76H   EDATA    FLOAT     vbat_in
      00000CF6H   EDATA    ---       virtual_scope_data
*DEL*:00000000H   CODE     ---       vodka_JustFloat_send
      000000EEH   EDATA    ---       vofa_send_data
*SFR* 000000A6H   DATA     BYTE      VRTRIM
*DEL*:00000000H   CODE     ---       wait_for_voltage
*SFR* 000000C1H   DATA     BYTE      WDT_CONTR
      00FF9C21H   HCONST   ---       Wei_32x32
      00000E5CH   EDATA    ---       wireless_module_uart_handler
      00000E5AH   EDATA    INT       wireless_type
      00FF0026H   CODE     ---       wireless_uart_callback
      00FF8DADH   CODE     ---       wireless_uart_init
*DEL*:00000000H   CODE     ---       wireless_uart_read_buff
*DEL*:00000000H   CODE     ---       wireless_uart_send_buff
*DEL*:00000000H   CODE     ---       wireless_uart_send_byte
*SFR* 000000E9H   DATA     BYTE      WTST
      000009FAH   EDATA    FLOAT     x_t_float
      00000A03H   EDATA    FLOAT     x_t_int
      00000A8BH   EDATA    BYTE      yuansu_flag
      00000E62H   EDATA    WORD      zf_delay_ms
      00000E64H   EDATA    WORD      zf_delay_us
      00FF3C15H   CODE     ---       zf_sprintf



SYMBOL TABLE OF MODULE:  .\Out_File\SEEKFREE (board)

      VALUE       REP       CLASS    TYPE      SYMBOL NAME
      ====================================================
      ---         MODULE    ---      ---       board
      00FF0006H   PUBLIC    CODE     ---       EnableGlobalIRQ
      00FF8457H   PUBLIC    CODE     ---       board_init
      00FF6C82H   PUBLIC    CODE     ---       set_clk
      00FF922EH   PUBLIC    CODE     ---       putchar
      00000E56H   PUBLIC    EDATA    LONG      sys_clk
      00000094H   SFRSYM    DATA     BYTE      P0M0
      000000D0H   SFRSYM    DATA     BYTE      PSW
      000000BAH.7 SFRSYM    DATA     BIT       EAXFR
      0000009DH   SFRSYM    DATA     BYTE      IRCBAND
      00000097H   SFRSYM    DATA     BYTE      AUXR2
L251 LINKER/LOCATER V4.66.93.0                                                        06/21/2025  18:27:27  PAGE 24


      000000EAH   SFRSYM    DATA     BYTE      CKCON
      000000EFH   SFRSYM    DATA     BYTE      AUXINTIF
      000000FDH   SFRSYM    DATA     BYTE      S4CON
      000000ACH   SFRSYM    DATA     BYTE      S3CON
      0000009AH   SFRSYM    DATA     BYTE      S2CON
      000000A6H   SFRSYM    DATA     BYTE      VRTRIM
      000000B7H   SFRSYM    DATA     BYTE      IPH
      000000CDH   SFRSYM    DATA     BYTE      SPSTAT
      000000DDH   SFRSYM    DATA     BYTE      T4T3M
      0000009FH   SFRSYM    DATA     BYTE      IRTRIM
      000000C1H   SFRSYM    DATA     BYTE      WDT_CONTR
      000000E9H   SFRSYM    DATA     BYTE      WTST
      000000DFH   SFRSYM    DATA     BYTE      IP3
      000000F4H   SFRSYM    DATA     BYTE      USBCON
      000000B5H   SFRSYM    DATA     BYTE      IP2
      000000FFH   SFRSYM    DATA     BYTE      RSTCFG
      000000F9H   SFRSYM    DATA     BYTE      LINICR
      0000008EH   SFRSYM    DATA     BYTE      AUXR
      000000AFH   SFRSYM    DATA     BYTE      IE2
      00000088H   SFRSYM    DATA     BYTE      TCON
      00000089H   SFRSYM    DATA     BYTE      TMOD
      00000098H   SFRSYM    DATA     BYTE      SCON
      000000F1H   SFRSYM    DATA     BYTE      CANICR
      00000087H   SFRSYM    DATA     BYTE      PCON
      000000BCH   SFRSYM    DATA     BYTE      ADC_CONTR
      000000E7H   SFRSYM    DATA     BYTE      CMPCR2
      000000E6H   SFRSYM    DATA     BYTE      CMPCR1
      000000DEH   SFRSYM    DATA     BYTE      ADCCFG
      000000B8H   SFRSYM    DATA     BYTE      IP
      0000008FH   SFRSYM    DATA     BYTE      INTCLKO
      000000EEH   SFRSYM    DATA     BYTE      IP3H
      000000B6H   SFRSYM    DATA     BYTE      IP2H
      000000A8H   SFRSYM    DATA     BYTE      IE
      000000BBH   SFRSYM    DATA     BYTE      P_SW3
      000000BAH   SFRSYM    DATA     BYTE      P_SW2
      000000A2H   SFRSYM    DATA     BYTE      P_SW1
      000000CEH   SFRSYM    DATA     BYTE      SPCTL
      000000F8H   SFRSYM    DATA     BYTE      P7
      000000A8H.7 SFRSYM    DATA     BIT       EA
      000000E1H   SFRSYM    DATA     BYTE      P7M1
      000000E8H   SFRSYM    DATA     BYTE      P6
      000000C8H   SFRSYM    DATA     BYTE      P5
      000000CBH   SFRSYM    DATA     BYTE      P6M1
      000000E2H   SFRSYM    DATA     BYTE      P7M0
      000000C0H   SFRSYM    DATA     BYTE      P4
      000000C9H   SFRSYM    DATA     BYTE      P5M1
      000000CCH   SFRSYM    DATA     BYTE      P6M0
      000000B0H   SFRSYM    DATA     BYTE      P3
      000000B3H   SFRSYM    DATA     BYTE      P4M1
      000000CAH   SFRSYM    DATA     BYTE      P5M0
      000000A0H   SFRSYM    DATA     BYTE      P2
      000000B1H   SFRSYM    DATA     BYTE      P3M1
      000000B4H   SFRSYM    DATA     BYTE      P4M0
      00000090H   SFRSYM    DATA     BYTE      P1
      00000095H   SFRSYM    DATA     BYTE      P2M1
      000000B2H   SFRSYM    DATA     BYTE      P3M0
      00000080H   SFRSYM    DATA     BYTE      P0
      00000091H   SFRSYM    DATA     BYTE      P1M1
      00000096H   SFRSYM    DATA     BYTE      P2M0
      00000092H   SFRSYM    DATA     BYTE      P1M0
      00000093H   SFRSYM    DATA     BYTE      P0M1

      00FF6C82H   BLOCK     CODE     ---       LVL=0
      00FF6C82H   LINE      CODE     ---       #43
      00FF6C82H   LINE      CODE     ---       #46
L251 LINKER/LOCATER V4.66.93.0                                                        06/21/2025  18:27:27  PAGE 25


      00FF6C85H   LINE      CODE     ---       #48
      00FF6C95H   LINE      CODE     ---       #51
      00FF6CA2H   LINE      CODE     ---       #52
      00FF6CAFH   LINE      CODE     ---       #53
      00FF6CBCH   LINE      CODE     ---       #54
      00FF6CC0H   LINE      CODE     ---       #55
      00FF6CCCH   LINE      CODE     ---       #56
      00FF6CCFH   LINE      CODE     ---       #57
      00FF6CDFH   LINE      CODE     ---       #60
      00FF6CECH   LINE      CODE     ---       #61
      00FF6CF9H   LINE      CODE     ---       #62
      00FF6D06H   LINE      CODE     ---       #63
      00FF6D0AH   LINE      CODE     ---       #64
      00FF6D16H   LINE      CODE     ---       #65
      00FF6D19H   LINE      CODE     ---       #66
      00FF6D29H   LINE      CODE     ---       #69
      00FF6D36H   LINE      CODE     ---       #70
      00FF6D43H   LINE      CODE     ---       #71
      00FF6D50H   LINE      CODE     ---       #72
      00FF6D54H   LINE      CODE     ---       #73
      00FF6D60H   LINE      CODE     ---       #74
      00FF6D63H   LINE      CODE     ---       #75
      00FF6D73H   LINE      CODE     ---       #79
      00FF6D80H   LINE      CODE     ---       #80
      00FF6D8DH   LINE      CODE     ---       #81
      00FF6D9AH   LINE      CODE     ---       #82
      00FF6D9EH   LINE      CODE     ---       #83
      00FF6DAAH   LINE      CODE     ---       #84
      00FF6DADH   LINE      CODE     ---       #85
      00FF6DBDH   LINE      CODE     ---       #88
      00FF6DCAH   LINE      CODE     ---       #89
      00FF6DD7H   LINE      CODE     ---       #90
      00FF6DE4H   LINE      CODE     ---       #91
      00FF6DE8H   LINE      CODE     ---       #92
      00FF6DF4H   LINE      CODE     ---       #93
      00FF6DF7H   LINE      CODE     ---       #94
      00FF6E07H   LINE      CODE     ---       #97
      00FF6E14H   LINE      CODE     ---       #98
      00FF6E21H   LINE      CODE     ---       #99
      00FF6E2EH   LINE      CODE     ---       #100
      00FF6E32H   LINE      CODE     ---       #101
      00FF6E3EH   LINE      CODE     ---       #102
      00FF6E40H   LINE      CODE     ---       #105
      00FF6E4CH   LINE      CODE     ---       #107
      00FF6E59H   LINE      CODE     ---       #108
      00FF6E66H   LINE      CODE     ---       #109
      00FF6E73H   LINE      CODE     ---       #110
      00FF6E77H   LINE      CODE     ---       #111
      00FF6E83H   LINE      CODE     ---       #112
      00FF6E83H   LINE      CODE     ---       #114
      00FF6E87H   LINE      CODE     ---       #115
      ---         BLOCKEND  ---      ---       LVL=0

      00FF8457H   BLOCK     CODE     ---       LVL=0
      00FF8457H   LINE      CODE     ---       #121
      00FF8457H   LINE      CODE     ---       #123
      00FF845BH   LINE      CODE     ---       #124
      00FF845EH   LINE      CODE     ---       #125
      00FF8461H   LINE      CODE     ---       #126
      00FF8464H   LINE      CODE     ---       #127
      00FF8468H   LINE      CODE     ---       #137
      00FF846FH   LINE      CODE     ---       #143
      00FF8472H   LINE      CODE     ---       #145
      00FF8475H   LINE      CODE     ---       #146
      00FF8478H   LINE      CODE     ---       #147
L251 LINKER/LOCATER V4.66.93.0                                                        06/21/2025  18:27:27  PAGE 26


      00FF8484H   LINE      CODE     ---       #149
      00FF8487H   LINE      CODE     ---       #150
      00FF848AH   LINE      CODE     ---       #151
      00FF848DH   LINE      CODE     ---       #152
      00FF8490H   LINE      CODE     ---       #153
      00FF8493H   LINE      CODE     ---       #154
      00FF8496H   LINE      CODE     ---       #155
      00FF8499H   LINE      CODE     ---       #156
      00FF849CH   LINE      CODE     ---       #157
      00FF849FH   LINE      CODE     ---       #158
      00FF84A2H   LINE      CODE     ---       #159
      00FF84A5H   LINE      CODE     ---       #160
      00FF84A8H   LINE      CODE     ---       #161
      00FF84ABH   LINE      CODE     ---       #162
      00FF84AEH   LINE      CODE     ---       #163
      00FF84B1H   LINE      CODE     ---       #164
      00FF84B4H   LINE      CODE     ---       #166
      00FF84B7H   LINE      CODE     ---       #167
      00FF84BAH   LINE      CODE     ---       #168
      00FF84BDH   LINE      CODE     ---       #169
      00FF84C0H   LINE      CODE     ---       #170
      00FF84C3H   LINE      CODE     ---       #171
      00FF84C6H   LINE      CODE     ---       #172
      00FF84C9H   LINE      CODE     ---       #173
      00FF84CCH   LINE      CODE     ---       #174
      00FF84CFH   LINE      CODE     ---       #176
      00FF84EAH   LINE      CODE     ---       #177
      00FF84EDH   LINE      CODE     ---       #178
      ---         BLOCKEND  ---      ---       LVL=0

      00FF922EH   BLOCK     CODE     ---       LVL=0
      00000EAEH   SYMBOL    EDATA    CHAR      c
      00FF922EH   LINE      CODE     ---       #183
      00FF9232H   LINE      CODE     ---       #185
      00FF923BH   LINE      CODE     ---       #187
      00FF923FH   LINE      CODE     ---       #188
      ---         BLOCKEND  ---      ---       LVL=0

      00FF0006H   BLOCK     CODE     ---       LVL=0
      00FF0006H   LINE      CODE     ---       #198
      00FF0006H   LINE      CODE     ---       #200
      00FF0009H   LINE      CODE     ---       #201
      ---         BLOCKEND  ---      ---       LVL=0

      ---         MODULE    ---      ---       common
      00000E5AH   PUBLIC    EDATA    INT       wireless_type
      00000E5CH   PUBLIC    EDATA    ---       wireless_module_uart_handler
      000000D0H   SFRSYM    DATA     BYTE      PSW
      0000009DH   SFRSYM    DATA     BYTE      IRCBAND
      00000097H   SFRSYM    DATA     BYTE      AUXR2
      000000EFH   SFRSYM    DATA     BYTE      AUXINTIF
      000000FDH   SFRSYM    DATA     BYTE      S4CON
      000000ACH   SFRSYM    DATA     BYTE      S3CON
      0000009AH   SFRSYM    DATA     BYTE      S2CON
      000000B7H   SFRSYM    DATA     BYTE      IPH
      000000CDH   SFRSYM    DATA     BYTE      SPSTAT
      000000DDH   SFRSYM    DATA     BYTE      T4T3M
      000000C1H   SFRSYM    DATA     BYTE      WDT_CONTR
      000000DFH   SFRSYM    DATA     BYTE      IP3
      000000F4H   SFRSYM    DATA     BYTE      USBCON
      000000B5H   SFRSYM    DATA     BYTE      IP2
      000000FFH   SFRSYM    DATA     BYTE      RSTCFG
      000000F9H   SFRSYM    DATA     BYTE      LINICR
      0000008EH   SFRSYM    DATA     BYTE      AUXR
      000000AFH   SFRSYM    DATA     BYTE      IE2
L251 LINKER/LOCATER V4.66.93.0                                                        06/21/2025  18:27:27  PAGE 27


      00000088H   SFRSYM    DATA     BYTE      TCON
      00000098H   SFRSYM    DATA     BYTE      SCON
      000000F1H   SFRSYM    DATA     BYTE      CANICR
      00000087H   SFRSYM    DATA     BYTE      PCON
      000000BCH   SFRSYM    DATA     BYTE      ADC_CONTR
      000000E7H   SFRSYM    DATA     BYTE      CMPCR2
      000000E6H   SFRSYM    DATA     BYTE      CMPCR1
      000000B8H   SFRSYM    DATA     BYTE      IP
      0000008FH   SFRSYM    DATA     BYTE      INTCLKO
      000000EEH   SFRSYM    DATA     BYTE      IP3H
      000000B6H   SFRSYM    DATA     BYTE      IP2H
      000000A8H   SFRSYM    DATA     BYTE      IE
      000000BBH   SFRSYM    DATA     BYTE      P_SW3
      000000BAH   SFRSYM    DATA     BYTE      P_SW2
      000000A2H   SFRSYM    DATA     BYTE      P_SW1
      000000CEH   SFRSYM    DATA     BYTE      SPCTL
      000000F8H   SFRSYM    DATA     BYTE      P7
      000000E8H   SFRSYM    DATA     BYTE      P6
      000000C8H   SFRSYM    DATA     BYTE      P5
      000000C0H   SFRSYM    DATA     BYTE      P4
      000000B0H   SFRSYM    DATA     BYTE      P3
      000000A0H   SFRSYM    DATA     BYTE      P2
      00000090H   SFRSYM    DATA     BYTE      P1
      00000080H   SFRSYM    DATA     BYTE      P0

      ---         MODULE    ---      ---       zf_adc
      00FF8CAFH   PUBLIC    CODE     ---       adc_once
      00FF80E3H   PUBLIC    CODE     ---       adc_init
      00000094H   SFRSYM    DATA     BYTE      P0M0
      000000D0H   SFRSYM    DATA     BYTE      PSW
      0000009DH   SFRSYM    DATA     BYTE      IRCBAND
      00000097H   SFRSYM    DATA     BYTE      AUXR2
      000000EFH   SFRSYM    DATA     BYTE      AUXINTIF
      000000FDH   SFRSYM    DATA     BYTE      S4CON
      000000ACH   SFRSYM    DATA     BYTE      S3CON
      0000009AH   SFRSYM    DATA     BYTE      S2CON
      000000B7H   SFRSYM    DATA     BYTE      IPH
      000000CDH   SFRSYM    DATA     BYTE      SPSTAT
      000000BEH   SFRSYM    DATA     BYTE      ADC_RESL
      000000DDH   SFRSYM    DATA     BYTE      T4T3M
      000000C1H   SFRSYM    DATA     BYTE      WDT_CONTR
      000000DFH   SFRSYM    DATA     BYTE      IP3
      000000F4H   SFRSYM    DATA     BYTE      USBCON
      000000B5H   SFRSYM    DATA     BYTE      IP2
      000000FFH   SFRSYM    DATA     BYTE      RSTCFG
      000000F9H   SFRSYM    DATA     BYTE      LINICR
      0000008EH   SFRSYM    DATA     BYTE      AUXR
      000000AFH   SFRSYM    DATA     BYTE      IE2
      00000088H   SFRSYM    DATA     BYTE      TCON
      00000098H   SFRSYM    DATA     BYTE      SCON
      000000F1H   SFRSYM    DATA     BYTE      CANICR
      00000087H   SFRSYM    DATA     BYTE      PCON
      000000BCH   SFRSYM    DATA     BYTE      ADC_CONTR
      000000E7H   SFRSYM    DATA     BYTE      CMPCR2
      000000E6H   SFRSYM    DATA     BYTE      CMPCR1
      000000DEH   SFRSYM    DATA     BYTE      ADCCFG
      000000B8H   SFRSYM    DATA     BYTE      IP
      0000008FH   SFRSYM    DATA     BYTE      INTCLKO
      000000EEH   SFRSYM    DATA     BYTE      IP3H
      000000B6H   SFRSYM    DATA     BYTE      IP2H
      000000BDH   SFRSYM    DATA     BYTE      ADC_RES
      000000A8H   SFRSYM    DATA     BYTE      IE
      000000BBH   SFRSYM    DATA     BYTE      P_SW3
      000000BAH   SFRSYM    DATA     BYTE      P_SW2
      000000A2H   SFRSYM    DATA     BYTE      P_SW1
L251 LINKER/LOCATER V4.66.93.0                                                        06/21/2025  18:27:27  PAGE 28


      000000CEH   SFRSYM    DATA     BYTE      SPCTL
      000000F8H   SFRSYM    DATA     BYTE      P7
      000000E8H   SFRSYM    DATA     BYTE      P6
      000000C8H   SFRSYM    DATA     BYTE      P5
      000000C0H   SFRSYM    DATA     BYTE      P4
      000000B0H   SFRSYM    DATA     BYTE      P3
      000000A0H   SFRSYM    DATA     BYTE      P2
      00000090H   SFRSYM    DATA     BYTE      P1
      00000080H   SFRSYM    DATA     BYTE      P0
      00000091H   SFRSYM    DATA     BYTE      P1M1
      00000092H   SFRSYM    DATA     BYTE      P1M0
      00000093H   SFRSYM    DATA     BYTE      P0M1

      00FF80E3H   BLOCK     CODE     ---       LVL=0
      00000E5EH   SYMBOL    EDATA    INT       adcn
      00000E60H   SYMBOL    EDATA    INT       speed
      00FF80E3H   LINE      CODE     ---       #32
      00FF80EBH   LINE      CODE     ---       #34
      00FF80EEH   LINE      CODE     ---       #36
      00FF80F1H   LINE      CODE     ---       #37
      00FF80F9H   LINE      CODE     ---       #39
      00FF810BH   LINE      CODE     ---       #42
      00FF8126H   LINE      CODE     ---       #43
      00FF813FH   LINE      CODE     ---       #44
      00FF8141H   LINE      CODE     ---       #45
      00FF8151H   LINE      CODE     ---       #48
      00FF816CH   LINE      CODE     ---       #49
      00FF8185H   LINE      CODE     ---       #50
      00FF8185H   LINE      CODE     ---       #52
      00FF8194H   LINE      CODE     ---       #54
      00FF8197H   LINE      CODE     ---       #55
      ---         BLOCKEND  ---      ---       LVL=0

      00FF8CAFH   BLOCK     CODE     ---       LVL=0
      00000DD7H   SYMBOL    EDATA    INT       adcn
      00000DD9H   SYMBOL    EDATA    INT       resolution
      00FF8CB7H   BLOCK     CODE     NEAR LAB  LVL=1
      00000DDBH   SYMBOL    EDATA    WORD      adc_value
      ---         BLOCKEND  ---      ---       LVL=1
      00FF8CAFH   LINE      CODE     ---       #66
      00FF8CB7H   LINE      CODE     ---       #67
      00FF8CB7H   LINE      CODE     ---       #70
      00FF8CBAH   LINE      CODE     ---       #71
      00FF8CC2H   LINE      CODE     ---       #73
      00FF8CC5H   LINE      CODE     ---       #74
      00FF8CCAH   LINE      CODE     ---       #75
      00FF8CCDH   LINE      CODE     ---       #77
      00FF8CD5H   LINE      CODE     ---       #78
      00FF8CDDH   LINE      CODE     ---       #79
      00FF8CEBH   LINE      CODE     ---       #81
      00FF8CEEH   LINE      CODE     ---       #82
      00FF8CF1H   LINE      CODE     ---       #84
      00FF8D04H   LINE      CODE     ---       #87
      00FF8D04H   LINE      CODE     ---       #88
      ---         BLOCKEND  ---      ---       LVL=0

      ---         MODULE    ---      ---       zf_delay
      00FF8FB8H   PUBLIC    CODE     ---       delay_init
      00FF9037H   PUBLIC    CODE     ---       delay_ms
      00000E62H   PUBLIC    EDATA    WORD      zf_delay_ms
      00000E64H   PUBLIC    EDATA    WORD      zf_delay_us
      000000D0H   SFRSYM    DATA     BYTE      PSW
      0000009DH   SFRSYM    DATA     BYTE      IRCBAND
      00000097H   SFRSYM    DATA     BYTE      AUXR2
      000000EFH   SFRSYM    DATA     BYTE      AUXINTIF
L251 LINKER/LOCATER V4.66.93.0                                                        06/21/2025  18:27:27  PAGE 29


      000000FDH   SFRSYM    DATA     BYTE      S4CON
      000000ACH   SFRSYM    DATA     BYTE      S3CON
      0000009AH   SFRSYM    DATA     BYTE      S2CON
      000000B7H   SFRSYM    DATA     BYTE      IPH
      000000CDH   SFRSYM    DATA     BYTE      SPSTAT
      000000DDH   SFRSYM    DATA     BYTE      T4T3M
      000000C1H   SFRSYM    DATA     BYTE      WDT_CONTR
      000000DFH   SFRSYM    DATA     BYTE      IP3
      000000F4H   SFRSYM    DATA     BYTE      USBCON
      000000B5H   SFRSYM    DATA     BYTE      IP2
      000000FFH   SFRSYM    DATA     BYTE      RSTCFG
      000000F9H   SFRSYM    DATA     BYTE      LINICR
      0000008EH   SFRSYM    DATA     BYTE      AUXR
      000000AFH   SFRSYM    DATA     BYTE      IE2
      00000088H   SFRSYM    DATA     BYTE      TCON
      00000098H   SFRSYM    DATA     BYTE      SCON
      000000F1H   SFRSYM    DATA     BYTE      CANICR
      00000087H   SFRSYM    DATA     BYTE      PCON
      000000BCH   SFRSYM    DATA     BYTE      ADC_CONTR
      000000E7H   SFRSYM    DATA     BYTE      CMPCR2
      000000E6H   SFRSYM    DATA     BYTE      CMPCR1
      000000B8H   SFRSYM    DATA     BYTE      IP
      0000008FH   SFRSYM    DATA     BYTE      INTCLKO
      000000EEH   SFRSYM    DATA     BYTE      IP3H
      000000B6H   SFRSYM    DATA     BYTE      IP2H
      000000A8H   SFRSYM    DATA     BYTE      IE
      000000BBH   SFRSYM    DATA     BYTE      P_SW3
      000000BAH   SFRSYM    DATA     BYTE      P_SW2
      000000A2H   SFRSYM    DATA     BYTE      P_SW1
      000000CEH   SFRSYM    DATA     BYTE      SPCTL
      000000F8H   SFRSYM    DATA     BYTE      P7
      000000E8H   SFRSYM    DATA     BYTE      P6
      000000C8H   SFRSYM    DATA     BYTE      P5
      000000C0H   SFRSYM    DATA     BYTE      P4
      000000B0H   SFRSYM    DATA     BYTE      P3
      000000A0H   SFRSYM    DATA     BYTE      P2
      00000090H   SFRSYM    DATA     BYTE      P1
      00000080H   SFRSYM    DATA     BYTE      P0

      00FF8FB8H   BLOCK     CODE     ---       LVL=0
      00FF8FB8H   LINE      CODE     ---       #34
      00FF8FB8H   LINE      CODE     ---       #36
      00FF8FC7H   LINE      CODE     ---       #37
      00FF8FDAH   LINE      CODE     ---       #38
      00FF8FF8H   LINE      CODE     ---       #40
      ---         BLOCKEND  ---      ---       LVL=0

      00FF9037H   BLOCK     CODE     ---       LVL=0
      00000E66H   SYMBOL    EDATA    WORD      ms
      00FF903BH   BLOCK     CODE     NEAR LAB  LVL=1
      00000E68H   SYMBOL    EDATA    WORD      i
      ---         BLOCKEND  ---      ---       LVL=1
      00FF9037H   LINE      CODE     ---       #48
      00FF903BH   LINE      CODE     ---       #49
      00FF903BH   LINE      CODE     ---       #51
      00FF903BH   LINE      CODE     ---       #52
      00FF9043H   LINE      CODE     ---       #54
      00FF9057H   LINE      CODE     ---       #55
      00FF906BH   LINE      CODE     ---       #56
      ---         BLOCKEND  ---      ---       LVL=0
      00000DDDH   SYMBOL    EDATA    DWORD     us
      00000DE1H   SYMBOL    EDATA    WORD      i

      ---         MODULE    ---      ---       zf_eeprom
      00000CCEH   PUBLIC    EDATA    BYTE      ?iap_read_bytes?BYTE
L251 LINKER/LOCATER V4.66.93.0                                                        06/21/2025  18:27:27  PAGE 30


      00000CD8H   PUBLIC    EDATA    BYTE      ?iap_write_bytes?BYTE
      000000D0H   SFRSYM    DATA     BYTE      PSW
      0000009DH   SFRSYM    DATA     BYTE      IRCBAND
      000000D0H.5 SFRSYM    DATA     BIT       F0
      00000097H   SFRSYM    DATA     BYTE      AUXR2
      000000C6H   SFRSYM    DATA     BYTE      IAP_TRIG
      000000EFH   SFRSYM    DATA     BYTE      AUXINTIF
      000000FDH   SFRSYM    DATA     BYTE      S4CON
      000000ACH   SFRSYM    DATA     BYTE      S3CON
      0000009AH   SFRSYM    DATA     BYTE      S2CON
      000000B7H   SFRSYM    DATA     BYTE      IPH
      000000CDH   SFRSYM    DATA     BYTE      SPSTAT
      000000DDH   SFRSYM    DATA     BYTE      T4T3M
      000000C1H   SFRSYM    DATA     BYTE      WDT_CONTR
      000000C2H   SFRSYM    DATA     BYTE      IAP_DATA
      000000DFH   SFRSYM    DATA     BYTE      IP3
      000000F4H   SFRSYM    DATA     BYTE      USBCON
      000000B5H   SFRSYM    DATA     BYTE      IP2
      000000FFH   SFRSYM    DATA     BYTE      RSTCFG
      000000C7H   SFRSYM    DATA     BYTE      IAP_CONTR
      000000F9H   SFRSYM    DATA     BYTE      LINICR
      0000008EH   SFRSYM    DATA     BYTE      AUXR
      000000AFH   SFRSYM    DATA     BYTE      IE2
      00000088H   SFRSYM    DATA     BYTE      TCON
      00000098H   SFRSYM    DATA     BYTE      SCON
      000000F5H   SFRSYM    DATA     BYTE      IAP_TPS
      000000F1H   SFRSYM    DATA     BYTE      CANICR
      00000087H   SFRSYM    DATA     BYTE      PCON
      000000BCH   SFRSYM    DATA     BYTE      ADC_CONTR
      000000E7H   SFRSYM    DATA     BYTE      CMPCR2
      000000E6H   SFRSYM    DATA     BYTE      CMPCR1
      000000C4H   SFRSYM    DATA     BYTE      IAP_ADDRL
      000000C3H   SFRSYM    DATA     BYTE      IAP_ADDRH
      000000F6H   SFRSYM    DATA     BYTE      IAP_ADDRE
      000000B8H   SFRSYM    DATA     BYTE      IP
      0000008FH   SFRSYM    DATA     BYTE      INTCLKO
      000000EEH   SFRSYM    DATA     BYTE      IP3H
      000000B6H   SFRSYM    DATA     BYTE      IP2H
      000000C5H   SFRSYM    DATA     BYTE      IAP_CMD
      000000A8H   SFRSYM    DATA     BYTE      IE
      000000BBH   SFRSYM    DATA     BYTE      P_SW3
      000000BAH   SFRSYM    DATA     BYTE      P_SW2
      000000A2H   SFRSYM    DATA     BYTE      P_SW1
      000000CEH   SFRSYM    DATA     BYTE      SPCTL
      000000F8H   SFRSYM    DATA     BYTE      P7
      000000A8H.7 SFRSYM    DATA     BIT       EA
      000000E8H   SFRSYM    DATA     BYTE      P6
      000000C8H   SFRSYM    DATA     BYTE      P5
      000000C0H   SFRSYM    DATA     BYTE      P4
      000000B0H   SFRSYM    DATA     BYTE      P3
      000000A0H   SFRSYM    DATA     BYTE      P2
      00000090H   SFRSYM    DATA     BYTE      P1
      00000080H   SFRSYM    DATA     BYTE      P0
      00000EAFH   SYMBOL    EDATA    BYTE      write_time
      00000CCEH   SYMBOL    EDATA    DWORD     addr
      00000CD2H   SYMBOL    EDATA    ---       buf
      00000CD6H   SYMBOL    EDATA    WORD      len
      00000CD8H   SYMBOL    EDATA    DWORD     addr
      00000CDCH   SYMBOL    EDATA    ---       buf
      00000CE0H   SYMBOL    EDATA    WORD      len
      00000E6AH   SYMBOL    EDATA    DWORD     addr

      ---         MODULE    ---      ---       zf_exti
      000000D0H   SFRSYM    DATA     BYTE      PSW
      0000009DH   SFRSYM    DATA     BYTE      IRCBAND
L251 LINKER/LOCATER V4.66.93.0                                                        06/21/2025  18:27:27  PAGE 31


      00000097H   SFRSYM    DATA     BYTE      AUXR2
      000000EFH   SFRSYM    DATA     BYTE      AUXINTIF
      000000FDH   SFRSYM    DATA     BYTE      S4CON
      000000ACH   SFRSYM    DATA     BYTE      S3CON
      0000009AH   SFRSYM    DATA     BYTE      S2CON
      000000B7H   SFRSYM    DATA     BYTE      IPH
      000000CDH   SFRSYM    DATA     BYTE      SPSTAT
      000000DDH   SFRSYM    DATA     BYTE      T4T3M
      000000C1H   SFRSYM    DATA     BYTE      WDT_CONTR
      00000088H.2 SFRSYM    DATA     BIT       IT1
      000000A8H.2 SFRSYM    DATA     BIT       EX1
      00000088H.0 SFRSYM    DATA     BIT       IT0
      000000A8H.0 SFRSYM    DATA     BIT       EX0
      000000DFH   SFRSYM    DATA     BYTE      IP3
      000000F4H   SFRSYM    DATA     BYTE      USBCON
      000000B5H   SFRSYM    DATA     BYTE      IP2
      000000FFH   SFRSYM    DATA     BYTE      RSTCFG
      000000F9H   SFRSYM    DATA     BYTE      LINICR
      0000008EH   SFRSYM    DATA     BYTE      AUXR
      000000AFH   SFRSYM    DATA     BYTE      IE2
      00000088H   SFRSYM    DATA     BYTE      TCON
      00000098H   SFRSYM    DATA     BYTE      SCON
      000000F1H   SFRSYM    DATA     BYTE      CANICR
      00000087H   SFRSYM    DATA     BYTE      PCON
      000000BCH   SFRSYM    DATA     BYTE      ADC_CONTR
      000000E7H   SFRSYM    DATA     BYTE      CMPCR2
      000000E6H   SFRSYM    DATA     BYTE      CMPCR1
      000000B8H   SFRSYM    DATA     BYTE      IP
      0000008FH   SFRSYM    DATA     BYTE      INTCLKO
      000000EEH   SFRSYM    DATA     BYTE      IP3H
      000000B6H   SFRSYM    DATA     BYTE      IP2H
      000000A8H   SFRSYM    DATA     BYTE      IE
      000000BBH   SFRSYM    DATA     BYTE      P_SW3
      000000BAH   SFRSYM    DATA     BYTE      P_SW2
      000000A2H   SFRSYM    DATA     BYTE      P_SW1
      000000CEH   SFRSYM    DATA     BYTE      SPCTL
      000000F8H   SFRSYM    DATA     BYTE      P7
      000000E8H   SFRSYM    DATA     BYTE      P6
      000000C8H   SFRSYM    DATA     BYTE      P5
      000000C0H   SFRSYM    DATA     BYTE      P4
      000000B0H   SFRSYM    DATA     BYTE      P3
      000000A0H   SFRSYM    DATA     BYTE      P2
      00000090H   SFRSYM    DATA     BYTE      P1
      00000080H   SFRSYM    DATA     BYTE      P0
      00000E6EH   SYMBOL    EDATA    INT       int_n
      00000E70H   SYMBOL    EDATA    INT       mode

      ---         MODULE    ---      ---       zf_gpio
      00FF2AF0H   PUBLIC    CODE     ---       gpio_mode
      00000094H   SFRSYM    DATA     BYTE      P0M0
      000000D0H   SFRSYM    DATA     BYTE      PSW
      0000009DH   SFRSYM    DATA     BYTE      IRCBAND
      00000097H   SFRSYM    DATA     BYTE      AUXR2
      000000EFH   SFRSYM    DATA     BYTE      AUXINTIF
      000000FDH   SFRSYM    DATA     BYTE      S4CON
      000000ACH   SFRSYM    DATA     BYTE      S3CON
      0000009AH   SFRSYM    DATA     BYTE      S2CON
      000000B7H   SFRSYM    DATA     BYTE      IPH
      000000CDH   SFRSYM    DATA     BYTE      SPSTAT
      000000DDH   SFRSYM    DATA     BYTE      T4T3M
      000000C1H   SFRSYM    DATA     BYTE      WDT_CONTR
      000000DFH   SFRSYM    DATA     BYTE      IP3
      000000F4H   SFRSYM    DATA     BYTE      USBCON
      000000B5H   SFRSYM    DATA     BYTE      IP2
      000000FFH   SFRSYM    DATA     BYTE      RSTCFG
L251 LINKER/LOCATER V4.66.93.0                                                        06/21/2025  18:27:27  PAGE 32


      000000F9H   SFRSYM    DATA     BYTE      LINICR
      0000008EH   SFRSYM    DATA     BYTE      AUXR
      000000AFH   SFRSYM    DATA     BYTE      IE2
      00000088H   SFRSYM    DATA     BYTE      TCON
      00000098H   SFRSYM    DATA     BYTE      SCON
      000000F1H   SFRSYM    DATA     BYTE      CANICR
      00000087H   SFRSYM    DATA     BYTE      PCON
      000000BCH   SFRSYM    DATA     BYTE      ADC_CONTR
      000000E7H   SFRSYM    DATA     BYTE      CMPCR2
      000000E6H   SFRSYM    DATA     BYTE      CMPCR1
      000000B8H   SFRSYM    DATA     BYTE      IP
      0000008FH   SFRSYM    DATA     BYTE      INTCLKO
      000000EEH   SFRSYM    DATA     BYTE      IP3H
      000000B6H   SFRSYM    DATA     BYTE      IP2H
      000000A8H   SFRSYM    DATA     BYTE      IE
      000000BBH   SFRSYM    DATA     BYTE      P_SW3
      000000BAH   SFRSYM    DATA     BYTE      P_SW2
      000000A2H   SFRSYM    DATA     BYTE      P_SW1
      000000CEH   SFRSYM    DATA     BYTE      SPCTL
      000000F8H   SFRSYM    DATA     BYTE      P7
      000000E1H   SFRSYM    DATA     BYTE      P7M1
      000000E8H   SFRSYM    DATA     BYTE      P6
      000000C8H   SFRSYM    DATA     BYTE      P5
      000000CBH   SFRSYM    DATA     BYTE      P6M1
      000000E2H   SFRSYM    DATA     BYTE      P7M0
      000000C0H   SFRSYM    DATA     BYTE      P4
      000000C9H   SFRSYM    DATA     BYTE      P5M1
      000000CCH   SFRSYM    DATA     BYTE      P6M0
      000000B0H   SFRSYM    DATA     BYTE      P3
      000000B3H   SFRSYM    DATA     BYTE      P4M1
      000000CAH   SFRSYM    DATA     BYTE      P5M0
      000000A0H   SFRSYM    DATA     BYTE      P2
      000000B1H   SFRSYM    DATA     BYTE      P3M1
      000000B4H   SFRSYM    DATA     BYTE      P4M0
      00000090H   SFRSYM    DATA     BYTE      P1
      00000095H   SFRSYM    DATA     BYTE      P2M1
      000000B2H   SFRSYM    DATA     BYTE      P3M0
      00000080H   SFRSYM    DATA     BYTE      P0
      00000091H   SFRSYM    DATA     BYTE      P1M1
      00000096H   SFRSYM    DATA     BYTE      P2M0
      00000092H   SFRSYM    DATA     BYTE      P1M0
      00000093H   SFRSYM    DATA     BYTE      P0M1
      00000E72H   SYMBOL    EDATA    INT       pin
      00000E74H   SYMBOL    EDATA    INT       pull

      00FF2AF0H   BLOCK     CODE     ---       LVL=0
      00000E76H   SYMBOL    EDATA    INT       pin
      00000E78H   SYMBOL    EDATA    INT       mode
      00FF2AF0H   LINE      CODE     ---       #54
      00FF2AF8H   LINE      CODE     ---       #56
      00FF2B05H   LINE      CODE     ---       #58
      00FF2B15H   LINE      CODE     ---       #60
      00FF2B30H   LINE      CODE     ---       #61
      00FF2B4BH   LINE      CODE     ---       #62
      00FF2B4BH   LINE      CODE     ---       #63
      00FF2B5DH   LINE      CODE     ---       #65
      00FF2B78H   LINE      CODE     ---       #66
      00FF2B93H   LINE      CODE     ---       #67
      00FF2B93H   LINE      CODE     ---       #68
      00FF2BA5H   LINE      CODE     ---       #70
      00FF2BC0H   LINE      CODE     ---       #71
      00FF2BDBH   LINE      CODE     ---       #72
      00FF2BDBH   LINE      CODE     ---       #74
      00FF2BEDH   LINE      CODE     ---       #76
      00FF2C08H   LINE      CODE     ---       #77
L251 LINKER/LOCATER V4.66.93.0                                                        06/21/2025  18:27:27  PAGE 33


      00FF2C23H   LINE      CODE     ---       #78
      00FF2C23H   LINE      CODE     ---       #79
      00FF2C35H   LINE      CODE     ---       #81
      00FF2C50H   LINE      CODE     ---       #82
      00FF2C6BH   LINE      CODE     ---       #83
      00FF2C6BH   LINE      CODE     ---       #84
      00FF2C7DH   LINE      CODE     ---       #86
      00FF2C98H   LINE      CODE     ---       #87
      00FF2CB3H   LINE      CODE     ---       #88
      00FF2CB3H   LINE      CODE     ---       #89
      00FF2CC5H   LINE      CODE     ---       #91
      00FF2CE0H   LINE      CODE     ---       #92
      00FF2CFBH   LINE      CODE     ---       #93
      00FF2CFBH   LINE      CODE     ---       #94
      00FF2D10H   LINE      CODE     ---       #96
      00FF2D2BH   LINE      CODE     ---       #97
      00FF2D46H   LINE      CODE     ---       #98
      00FF2D49H   LINE      CODE     ---       #100
      00FF2D58H   LINE      CODE     ---       #102
      00FF2D68H   LINE      CODE     ---       #104
      00FF2D83H   LINE      CODE     ---       #105
      00FF2D9CH   LINE      CODE     ---       #106
      00FF2D9CH   LINE      CODE     ---       #107
      00FF2DAEH   LINE      CODE     ---       #109
      00FF2DC9H   LINE      CODE     ---       #110
      00FF2DE2H   LINE      CODE     ---       #111
      00FF2DE2H   LINE      CODE     ---       #112
      00FF2DF4H   LINE      CODE     ---       #114
      00FF2E0FH   LINE      CODE     ---       #115
      00FF2E28H   LINE      CODE     ---       #116
      00FF2E28H   LINE      CODE     ---       #118
      00FF2E3AH   LINE      CODE     ---       #120
      00FF2E55H   LINE      CODE     ---       #121
      00FF2E6EH   LINE      CODE     ---       #122
      00FF2E6EH   LINE      CODE     ---       #123
      00FF2E80H   LINE      CODE     ---       #125
      00FF2E9BH   LINE      CODE     ---       #126
      00FF2EB4H   LINE      CODE     ---       #127
      00FF2EB4H   LINE      CODE     ---       #128
      00FF2EC6H   LINE      CODE     ---       #130
      00FF2EE1H   LINE      CODE     ---       #131
      00FF2EFAH   LINE      CODE     ---       #132
      00FF2EFAH   LINE      CODE     ---       #133
      00FF2F0CH   LINE      CODE     ---       #135
      00FF2F27H   LINE      CODE     ---       #136
      00FF2F40H   LINE      CODE     ---       #137
      00FF2F40H   LINE      CODE     ---       #138
      00FF2F55H   LINE      CODE     ---       #140
      00FF2F70H   LINE      CODE     ---       #141
      00FF2F89H   LINE      CODE     ---       #142
      00FF2F8CH   LINE      CODE     ---       #145
      00FF2F9BH   LINE      CODE     ---       #147
      00FF2FABH   LINE      CODE     ---       #149
      00FF2FC4H   LINE      CODE     ---       #150
      00FF2FDFH   LINE      CODE     ---       #151
      00FF2FDFH   LINE      CODE     ---       #152
      00FF2FF1H   LINE      CODE     ---       #154
      00FF300AH   LINE      CODE     ---       #155
      00FF3025H   LINE      CODE     ---       #156
      00FF3025H   LINE      CODE     ---       #157
      00FF3037H   LINE      CODE     ---       #159
      00FF3050H   LINE      CODE     ---       #160
      00FF306BH   LINE      CODE     ---       #161
      00FF306BH   LINE      CODE     ---       #163
      00FF307DH   LINE      CODE     ---       #165
L251 LINKER/LOCATER V4.66.93.0                                                        06/21/2025  18:27:27  PAGE 34


      00FF3096H   LINE      CODE     ---       #166
      00FF30B1H   LINE      CODE     ---       #167
      00FF30B1H   LINE      CODE     ---       #168
      00FF30C3H   LINE      CODE     ---       #170
      00FF30DCH   LINE      CODE     ---       #171
      00FF30F7H   LINE      CODE     ---       #172
      00FF30F7H   LINE      CODE     ---       #173
      00FF3109H   LINE      CODE     ---       #175
      00FF3122H   LINE      CODE     ---       #176
      00FF313DH   LINE      CODE     ---       #177
      00FF313DH   LINE      CODE     ---       #178
      00FF314FH   LINE      CODE     ---       #180
      00FF3168H   LINE      CODE     ---       #181
      00FF3183H   LINE      CODE     ---       #182
      00FF3183H   LINE      CODE     ---       #183
      00FF3198H   LINE      CODE     ---       #185
      00FF31B1H   LINE      CODE     ---       #186
      00FF31CCH   LINE      CODE     ---       #187
      00FF31CFH   LINE      CODE     ---       #189
      00FF31DEH   LINE      CODE     ---       #191
      00FF31EEH   LINE      CODE     ---       #193
      00FF3207H   LINE      CODE     ---       #194
      00FF3220H   LINE      CODE     ---       #195
      00FF3220H   LINE      CODE     ---       #196
      00FF3232H   LINE      CODE     ---       #198
      00FF324BH   LINE      CODE     ---       #199
      00FF3264H   LINE      CODE     ---       #200
      00FF3264H   LINE      CODE     ---       #201
      00FF3276H   LINE      CODE     ---       #203
      00FF328FH   LINE      CODE     ---       #204
      00FF32A8H   LINE      CODE     ---       #205
      00FF32A8H   LINE      CODE     ---       #207
      00FF32BAH   LINE      CODE     ---       #209
      00FF32D3H   LINE      CODE     ---       #210
      00FF32ECH   LINE      CODE     ---       #211
      00FF32ECH   LINE      CODE     ---       #212
      00FF32FEH   LINE      CODE     ---       #214
      00FF3317H   LINE      CODE     ---       #215
      00FF3330H   LINE      CODE     ---       #216
      00FF3330H   LINE      CODE     ---       #217
      00FF3342H   LINE      CODE     ---       #219
      00FF335BH   LINE      CODE     ---       #220
      00FF3374H   LINE      CODE     ---       #221
      00FF3374H   LINE      CODE     ---       #222
      00FF3386H   LINE      CODE     ---       #224
      00FF339FH   LINE      CODE     ---       #225
      00FF33B8H   LINE      CODE     ---       #226
      00FF33B8H   LINE      CODE     ---       #227
      00FF33CAH   LINE      CODE     ---       #229
      00FF33E3H   LINE      CODE     ---       #230
      00FF33FCH   LINE      CODE     ---       #231
      00FF33FCH   LINE      CODE     ---       #233
      ---         BLOCKEND  ---      ---       LVL=0

      ---         MODULE    ---      ---       zf_nvic
      000000D0H   SFRSYM    DATA     BYTE      PSW
      0000009DH   SFRSYM    DATA     BYTE      IRCBAND
      00000097H   SFRSYM    DATA     BYTE      AUXR2
      000000EFH   SFRSYM    DATA     BYTE      AUXINTIF
      000000FDH   SFRSYM    DATA     BYTE      S4CON
      000000ACH   SFRSYM    DATA     BYTE      S3CON
      0000009AH   SFRSYM    DATA     BYTE      S2CON
      000000B7H   SFRSYM    DATA     BYTE      IPH
      000000CDH   SFRSYM    DATA     BYTE      SPSTAT
      000000DDH   SFRSYM    DATA     BYTE      T4T3M
L251 LINKER/LOCATER V4.66.93.0                                                        06/21/2025  18:27:27  PAGE 35


      000000C1H   SFRSYM    DATA     BYTE      WDT_CONTR
      000000DFH   SFRSYM    DATA     BYTE      IP3
      000000F4H   SFRSYM    DATA     BYTE      USBCON
      000000B5H   SFRSYM    DATA     BYTE      IP2
      000000FFH   SFRSYM    DATA     BYTE      RSTCFG
      000000F9H   SFRSYM    DATA     BYTE      LINICR
      0000008EH   SFRSYM    DATA     BYTE      AUXR
      000000AFH   SFRSYM    DATA     BYTE      IE2
      00000088H   SFRSYM    DATA     BYTE      TCON
      00000098H   SFRSYM    DATA     BYTE      SCON
      000000F1H   SFRSYM    DATA     BYTE      CANICR
      00000087H   SFRSYM    DATA     BYTE      PCON
      000000BCH   SFRSYM    DATA     BYTE      ADC_CONTR
      000000E7H   SFRSYM    DATA     BYTE      CMPCR2
      000000E6H   SFRSYM    DATA     BYTE      CMPCR1
      000000B8H   SFRSYM    DATA     BYTE      IP
      0000008FH   SFRSYM    DATA     BYTE      INTCLKO
      000000EEH   SFRSYM    DATA     BYTE      IP3H
      000000B6H   SFRSYM    DATA     BYTE      IP2H
      000000A8H   SFRSYM    DATA     BYTE      IE
      000000BBH   SFRSYM    DATA     BYTE      P_SW3
      000000BAH   SFRSYM    DATA     BYTE      P_SW2
      000000A2H   SFRSYM    DATA     BYTE      P_SW1
      000000CEH   SFRSYM    DATA     BYTE      SPCTL
      000000F8H   SFRSYM    DATA     BYTE      P7
      000000E8H   SFRSYM    DATA     BYTE      P6
      000000C8H   SFRSYM    DATA     BYTE      P5
      000000C0H   SFRSYM    DATA     BYTE      P4
      000000B0H   SFRSYM    DATA     BYTE      P3
      000000A0H   SFRSYM    DATA     BYTE      P2
      00000090H   SFRSYM    DATA     BYTE      P1
      00000080H   SFRSYM    DATA     BYTE      P0
      00000E8AH   SYMBOL    EDATA    INT       irqn
      00000E8CH   SYMBOL    EDATA    BYTE      priority

      ---         MODULE    ---      ---       zf_pwm
      00FF799DH   PUBLIC    CODE     ---       pwm_duty
      00FF4DDBH   PUBLIC    CODE     ---       pwm_set_gpio
      00FF4276H   PUBLIC    CODE     ---       pwm_init
      00FF9EBBH   PUBLIC    HCONST   ---       PWM_CCR_ADDR
      00FF9EDBH   PUBLIC    HCONST   ---       PWM_ARR_ADDR
      00FF9EE3H   PUBLIC    HCONST   ---       PWM_CCER_ADDR
      00FF9EF3H   PUBLIC    HCONST   ---       PWM_CCMR_ADDR
      00000B12H   PUBLIC    EDATA    BYTE      ?pwm_init?BYTE
      00000B26H   PUBLIC    EDATA    BYTE      ?pwm_freq?BYTE
      000000D0H   SFRSYM    DATA     BYTE      PSW
      0000009DH   SFRSYM    DATA     BYTE      IRCBAND
      00000097H   SFRSYM    DATA     BYTE      AUXR2
      000000EFH   SFRSYM    DATA     BYTE      AUXINTIF
      000000FDH   SFRSYM    DATA     BYTE      S4CON
      000000ACH   SFRSYM    DATA     BYTE      S3CON
      0000009AH   SFRSYM    DATA     BYTE      S2CON
      000000B7H   SFRSYM    DATA     BYTE      IPH
      000000CDH   SFRSYM    DATA     BYTE      SPSTAT
      000000DDH   SFRSYM    DATA     BYTE      T4T3M
      000000C1H   SFRSYM    DATA     BYTE      WDT_CONTR
      000000DFH   SFRSYM    DATA     BYTE      IP3
      000000F4H   SFRSYM    DATA     BYTE      USBCON
      000000B5H   SFRSYM    DATA     BYTE      IP2
      000000FFH   SFRSYM    DATA     BYTE      RSTCFG
      000000F9H   SFRSYM    DATA     BYTE      LINICR
      0000008EH   SFRSYM    DATA     BYTE      AUXR
      000000AFH   SFRSYM    DATA     BYTE      IE2
      00000088H   SFRSYM    DATA     BYTE      TCON
      00000098H   SFRSYM    DATA     BYTE      SCON
L251 LINKER/LOCATER V4.66.93.0                                                        06/21/2025  18:27:27  PAGE 36


      000000F1H   SFRSYM    DATA     BYTE      CANICR
      00000087H   SFRSYM    DATA     BYTE      PCON
      000000BCH   SFRSYM    DATA     BYTE      ADC_CONTR
      000000E7H   SFRSYM    DATA     BYTE      CMPCR2
      000000E6H   SFRSYM    DATA     BYTE      CMPCR1
      000000B8H   SFRSYM    DATA     BYTE      IP
      0000008FH   SFRSYM    DATA     BYTE      INTCLKO
      000000EEH   SFRSYM    DATA     BYTE      IP3H
      000000B6H   SFRSYM    DATA     BYTE      IP2H
      000000A8H   SFRSYM    DATA     BYTE      IE
      000000BBH   SFRSYM    DATA     BYTE      P_SW3
      000000BAH   SFRSYM    DATA     BYTE      P_SW2
      000000A2H   SFRSYM    DATA     BYTE      P_SW1
      000000CEH   SFRSYM    DATA     BYTE      SPCTL
      000000F8H   SFRSYM    DATA     BYTE      P7
      000000E8H   SFRSYM    DATA     BYTE      P6
      000000C8H   SFRSYM    DATA     BYTE      P5
      000000C0H   SFRSYM    DATA     BYTE      P4
      000000B0H   SFRSYM    DATA     BYTE      P3
      000000A0H   SFRSYM    DATA     BYTE      P2
      00000090H   SFRSYM    DATA     BYTE      P1
      00000080H   SFRSYM    DATA     BYTE      P0

      00FF4DDBH   BLOCK     CODE     ---       LVL=0
      00000E96H   SYMBOL    EDATA    INT       pwmch
      00FF4DDBH   LINE      CODE     ---       #49
      00FF4DDFH   LINE      CODE     ---       #51
      00FF4F54H   LINE      CODE     ---       #53
      00FF4F54H   LINE      CODE     ---       #55
      00FF4F5FH   LINE      CODE     ---       #56
      00FF4F62H   LINE      CODE     ---       #58
      00FF4F62H   LINE      CODE     ---       #60
      00FF4F6DH   LINE      CODE     ---       #61
      00FF4F70H   LINE      CODE     ---       #63
      00FF4F70H   LINE      CODE     ---       #65
      00FF4F7BH   LINE      CODE     ---       #66
      00FF4F7EH   LINE      CODE     ---       #68
      00FF4F7EH   LINE      CODE     ---       #70
      00FF4F89H   LINE      CODE     ---       #71
      00FF4F8CH   LINE      CODE     ---       #73
      00FF4F8CH   LINE      CODE     ---       #75
      00FF4F97H   LINE      CODE     ---       #76
      00FF4F9AH   LINE      CODE     ---       #78
      00FF4F9AH   LINE      CODE     ---       #80
      00FF4FA5H   LINE      CODE     ---       #81
      00FF4FA8H   LINE      CODE     ---       #84
      00FF4FA8H   LINE      CODE     ---       #86
      00FF4FB3H   LINE      CODE     ---       #87
      00FF4FB6H   LINE      CODE     ---       #89
      00FF4FB6H   LINE      CODE     ---       #91
      00FF4FC1H   LINE      CODE     ---       #92
      00FF4FC4H   LINE      CODE     ---       #94
      00FF4FC4H   LINE      CODE     ---       #96
      00FF4FCFH   LINE      CODE     ---       #97
      00FF4FD2H   LINE      CODE     ---       #99
      00FF4FD2H   LINE      CODE     ---       #101
      00FF4FDDH   LINE      CODE     ---       #102
      00FF4FE0H   LINE      CODE     ---       #104
      00FF4FE0H   LINE      CODE     ---       #106
      00FF4FEBH   LINE      CODE     ---       #107
      00FF4FEEH   LINE      CODE     ---       #109
      00FF4FEEH   LINE      CODE     ---       #111
      00FF4FF9H   LINE      CODE     ---       #112
      00FF4FFCH   LINE      CODE     ---       #115
      00FF4FFCH   LINE      CODE     ---       #117
L251 LINKER/LOCATER V4.66.93.0                                                        06/21/2025  18:27:27  PAGE 37


      00FF5007H   LINE      CODE     ---       #118
      00FF500AH   LINE      CODE     ---       #120
      00FF500AH   LINE      CODE     ---       #122
      00FF5015H   LINE      CODE     ---       #123
      00FF5018H   LINE      CODE     ---       #125
      00FF5018H   LINE      CODE     ---       #127
      00FF5023H   LINE      CODE     ---       #128
      00FF5026H   LINE      CODE     ---       #130
      00FF5026H   LINE      CODE     ---       #132
      00FF5031H   LINE      CODE     ---       #133
      00FF5034H   LINE      CODE     ---       #135
      00FF5034H   LINE      CODE     ---       #137
      00FF503FH   LINE      CODE     ---       #138
      00FF5042H   LINE      CODE     ---       #140
      00FF5042H   LINE      CODE     ---       #142
      00FF504DH   LINE      CODE     ---       #143
      00FF5050H   LINE      CODE     ---       #147
      00FF5050H   LINE      CODE     ---       #149
      00FF505BH   LINE      CODE     ---       #150
      00FF505EH   LINE      CODE     ---       #152
      00FF505EH   LINE      CODE     ---       #154
      00FF5069H   LINE      CODE     ---       #155
      00FF506CH   LINE      CODE     ---       #157
      00FF506CH   LINE      CODE     ---       #159
      00FF5077H   LINE      CODE     ---       #160
      00FF507AH   LINE      CODE     ---       #162
      00FF507AH   LINE      CODE     ---       #164
      00FF5085H   LINE      CODE     ---       #165
      00FF5088H   LINE      CODE     ---       #167
      00FF5088H   LINE      CODE     ---       #169
      00FF5093H   LINE      CODE     ---       #170
      00FF5096H   LINE      CODE     ---       #172
      00FF5096H   LINE      CODE     ---       #174
      00FF50A1H   LINE      CODE     ---       #175
      00FF50A4H   LINE      CODE     ---       #177
      00FF50A4H   LINE      CODE     ---       #179
      00FF50AFH   LINE      CODE     ---       #180
      00FF50B2H   LINE      CODE     ---       #182
      00FF50B2H   LINE      CODE     ---       #184
      00FF50BDH   LINE      CODE     ---       #185
      00FF50C0H   LINE      CODE     ---       #189
      00FF50C0H   LINE      CODE     ---       #191
      00FF50CBH   LINE      CODE     ---       #192
      00FF50CEH   LINE      CODE     ---       #194
      00FF50CEH   LINE      CODE     ---       #196
      00FF50D9H   LINE      CODE     ---       #197
      00FF50DCH   LINE      CODE     ---       #199
      00FF50DCH   LINE      CODE     ---       #201
      00FF50E5H   LINE      CODE     ---       #202
      00FF50E8H   LINE      CODE     ---       #204
      00FF50E8H   LINE      CODE     ---       #206
      00FF50F3H   LINE      CODE     ---       #207
      00FF50F6H   LINE      CODE     ---       #210
      00FF50F6H   LINE      CODE     ---       #212
      00FF5101H   LINE      CODE     ---       #213
      00FF5104H   LINE      CODE     ---       #215
      00FF5104H   LINE      CODE     ---       #217
      00FF510FH   LINE      CODE     ---       #218
      00FF5112H   LINE      CODE     ---       #220
      00FF5112H   LINE      CODE     ---       #222
      00FF511DH   LINE      CODE     ---       #223
      00FF511FH   LINE      CODE     ---       #225
      00FF511FH   LINE      CODE     ---       #227
      00FF512AH   LINE      CODE     ---       #228
      00FF512CH   LINE      CODE     ---       #232
L251 LINKER/LOCATER V4.66.93.0                                                        06/21/2025  18:27:27  PAGE 38


      00FF512CH   LINE      CODE     ---       #234
      00FF5137H   LINE      CODE     ---       #235
      00FF5139H   LINE      CODE     ---       #237
      00FF5139H   LINE      CODE     ---       #239
      00FF5144H   LINE      CODE     ---       #240
      00FF5146H   LINE      CODE     ---       #242
      00FF5146H   LINE      CODE     ---       #244
      00FF5151H   LINE      CODE     ---       #245
      00FF5153H   LINE      CODE     ---       #247
      00FF5153H   LINE      CODE     ---       #249
      00FF515EH   LINE      CODE     ---       #250
      00FF5160H   LINE      CODE     ---       #254
      00FF5160H   LINE      CODE     ---       #256
      00FF516BH   LINE      CODE     ---       #257
      00FF516DH   LINE      CODE     ---       #259
      00FF516DH   LINE      CODE     ---       #261
      00FF5178H   LINE      CODE     ---       #262
      00FF517AH   LINE      CODE     ---       #264
      00FF517AH   LINE      CODE     ---       #266
      00FF5185H   LINE      CODE     ---       #267
      00FF5187H   LINE      CODE     ---       #269
      00FF5187H   LINE      CODE     ---       #271
      00FF5192H   LINE      CODE     ---       #272
      00FF5192H   LINE      CODE     ---       #275
      00FF5192H   LINE      CODE     ---       #277
      ---         BLOCKEND  ---      ---       LVL=0

      00FF4276H   BLOCK     CODE     ---       LVL=0
      00000B12H   SYMBOL    EDATA    INT       pwmch
      00000B14H   SYMBOL    EDATA    DWORD     freq
      00000B18H   SYMBOL    EDATA    DWORD     duty
      00FF427EH   BLOCK     CODE     NEAR LAB  LVL=1
      00000B1CH   SYMBOL    EDATA    DWORD     match_temp
      00000B20H   SYMBOL    EDATA    DWORD     period_temp
      00000B24H   SYMBOL    EDATA    WORD      freq_div
      ---         BLOCKEND  ---      ---       LVL=1
      00FF4276H   LINE      CODE     ---       #290
      00FF427EH   LINE      CODE     ---       #291
      00FF427EH   LINE      CODE     ---       #295
      00FF4284H   LINE      CODE     ---       #298
      00FF4287H   LINE      CODE     ---       #301
      00FF428EH   LINE      CODE     ---       #305
      00FF42A1H   LINE      CODE     ---       #306
      00FF42B0H   LINE      CODE     ---       #307
      00FF42CBH   LINE      CODE     ---       #309
      00FF42D5H   LINE      CODE     ---       #311
      00FF42FCH   LINE      CODE     ---       #312
      00FF42FEH   LINE      CODE     ---       #315
      00FF430CH   LINE      CODE     ---       #316
      00FF430CH   LINE      CODE     ---       #319
      00FF431BH   LINE      CODE     ---       #322
      00FF434CH   LINE      CODE     ---       #323
      00FF4383H   LINE      CODE     ---       #326
      00FF43D5H   LINE      CODE     ---       #329
      00FF43E8H   LINE      CODE     ---       #330
      00FF43F7H   LINE      CODE     ---       #332
      00FF4404H   LINE      CODE     ---       #333
      00FF4411H   LINE      CODE     ---       #334
      00FF4414H   LINE      CODE     ---       #337
      00FF4452H   LINE      CODE     ---       #338
      00FF4485H   LINE      CODE     ---       #341
      00FF44E5H   LINE      CODE     ---       #345
      00FF44F8H   LINE      CODE     ---       #346
      00FF4507H   LINE      CODE     ---       #348
      00FF4514H   LINE      CODE     ---       #349
L251 LINKER/LOCATER V4.66.93.0                                                        06/21/2025  18:27:27  PAGE 39


      00FF4521H   LINE      CODE     ---       #350
      00FF4521H   LINE      CODE     ---       #353
      00FF4553H   LINE      CODE     ---       #354
      00FF458BH   LINE      CODE     ---       #357
      00FF45B9H   LINE      CODE     ---       #358
      00FF45EDH   LINE      CODE     ---       #361
      00FF461EH   LINE      CODE     ---       #362
      00FF464FH   LINE      CODE     ---       #367
      ---         BLOCKEND  ---      ---       LVL=0

      00FF799DH   BLOCK     CODE     ---       LVL=0
      00000BD2H   SYMBOL    EDATA    INT       pwmch
      00000BD4H   SYMBOL    EDATA    DWORD     duty
      00FF79A5H   BLOCK     CODE     NEAR LAB  LVL=1
      00000BD8H   SYMBOL    EDATA    DWORD     match_temp
      00000BDCH   SYMBOL    EDATA    DWORD     arr
      ---         BLOCKEND  ---      ---       LVL=1
      00FF799DH   LINE      CODE     ---       #377
      00FF79A5H   LINE      CODE     ---       #378
      00FF79A5H   LINE      CODE     ---       #380
      00FF7A11H   LINE      CODE     ---       #384
      00FF7A1BH   LINE      CODE     ---       #386
      00FF7A42H   LINE      CODE     ---       #387
      00FF7A44H   LINE      CODE     ---       #390
      00FF7A52H   LINE      CODE     ---       #391
      00FF7A52H   LINE      CODE     ---       #396
      00FF7A80H   LINE      CODE     ---       #397
      00FF7AB4H   LINE      CODE     ---       #401
      ---         BLOCKEND  ---      ---       LVL=0
      00000B26H   SYMBOL    EDATA    INT       pwmch
      00000B28H   SYMBOL    EDATA    DWORD     freq
      00000B2CH   SYMBOL    EDATA    DWORD     duty
      00000B30H   SYMBOL    EDATA    DWORD     match_temp
      00000B34H   SYMBOL    EDATA    DWORD     period_temp
      00000B38H   SYMBOL    EDATA    WORD      freq_div

      ---         MODULE    ---      ---       zf_spi
      00FF7E99H   PUBLIC    CODE     ---       spi_init
      00FF9240H   PUBLIC    CODE     ---       spi_mosi
      00000C18H   PUBLIC    EDATA    BYTE      ?spi_init?BYTE
      000000CFH   SFRSYM    DATA     BYTE      SPDAT
      000000D0H   SFRSYM    DATA     BYTE      PSW
      0000009DH   SFRSYM    DATA     BYTE      IRCBAND
      00000097H   SFRSYM    DATA     BYTE      AUXR2
      000000EFH   SFRSYM    DATA     BYTE      AUXINTIF
      000000FDH   SFRSYM    DATA     BYTE      S4CON
      000000ACH   SFRSYM    DATA     BYTE      S3CON
      0000009AH   SFRSYM    DATA     BYTE      S2CON
      000000B7H   SFRSYM    DATA     BYTE      IPH
      000000CDH   SFRSYM    DATA     BYTE      SPSTAT
      000000DDH   SFRSYM    DATA     BYTE      T4T3M
      000000C1H   SFRSYM    DATA     BYTE      WDT_CONTR
      000000DFH   SFRSYM    DATA     BYTE      IP3
      000000F4H   SFRSYM    DATA     BYTE      USBCON
      000000B5H   SFRSYM    DATA     BYTE      IP2
      000000FFH   SFRSYM    DATA     BYTE      RSTCFG
      000000F9H   SFRSYM    DATA     BYTE      LINICR
      0000008EH   SFRSYM    DATA     BYTE      AUXR
      000000AFH   SFRSYM    DATA     BYTE      IE2
      00000088H   SFRSYM    DATA     BYTE      TCON
      00000098H   SFRSYM    DATA     BYTE      SCON
      000000F1H   SFRSYM    DATA     BYTE      CANICR
      00000087H   SFRSYM    DATA     BYTE      PCON
      000000BCH   SFRSYM    DATA     BYTE      ADC_CONTR
      000000E7H   SFRSYM    DATA     BYTE      CMPCR2
L251 LINKER/LOCATER V4.66.93.0                                                        06/21/2025  18:27:27  PAGE 40


      000000E6H   SFRSYM    DATA     BYTE      CMPCR1
      000000B8H   SFRSYM    DATA     BYTE      IP
      0000008FH   SFRSYM    DATA     BYTE      INTCLKO
      000000EEH   SFRSYM    DATA     BYTE      IP3H
      000000B6H   SFRSYM    DATA     BYTE      IP2H
      000000A8H   SFRSYM    DATA     BYTE      IE
      000000BBH   SFRSYM    DATA     BYTE      P_SW3
      000000BAH   SFRSYM    DATA     BYTE      P_SW2
      000000A2H   SFRSYM    DATA     BYTE      P_SW1
      000000CEH   SFRSYM    DATA     BYTE      SPCTL
      000000F8H   SFRSYM    DATA     BYTE      P7
      000000E8H   SFRSYM    DATA     BYTE      P6
      000000C8H   SFRSYM    DATA     BYTE      P5
      000000C0H   SFRSYM    DATA     BYTE      P4
      000000B0H   SFRSYM    DATA     BYTE      P3
      000000A0H   SFRSYM    DATA     BYTE      P2
      00000090H   SFRSYM    DATA     BYTE      P1
      00000080H   SFRSYM    DATA     BYTE      P0

      00FF7E99H   BLOCK     CODE     ---       LVL=0
      00000C18H   SYMBOL    EDATA    INT       spi_n
      00000C1AH   SYMBOL    EDATA    INT       sck_pin
      00000C1CH   SYMBOL    EDATA    INT       mosi_pin
      00000C1EH   SYMBOL    EDATA    INT       miso_pin
      00000C20H   SYMBOL    EDATA    BYTE      mode
      00000C21H   SYMBOL    EDATA    INT       mstr
      00000C23H   SYMBOL    EDATA    INT       baud
      00FF7E99H   LINE      CODE     ---       #39
      00FF7EADH   LINE      CODE     ---       #48
      00FF7EB9H   LINE      CODE     ---       #50
      00FF7EC8H   LINE      CODE     ---       #51
      00FF7EC8H   LINE      CODE     ---       #53
      00FF7ED4H   LINE      CODE     ---       #55
      00FF7EE3H   LINE      CODE     ---       #56
      00FF7EE3H   LINE      CODE     ---       #58
      00FF7EEFH   LINE      CODE     ---       #60
      00FF7EFEH   LINE      CODE     ---       #61
      00FF7EFEH   LINE      CODE     ---       #64
      00FF7F01H   LINE      CODE     ---       #65
      00FF7F17H   LINE      CODE     ---       #67
      00FF7F17H   LINE      CODE     ---       #68
      00FF7F1BH   LINE      CODE     ---       #69
      00FF7F1DH   LINE      CODE     ---       #70
      00FF7F1DH   LINE      CODE     ---       #71
      00FF7F20H   LINE      CODE     ---       #72
      00FF7F22H   LINE      CODE     ---       #73
      00FF7F22H   LINE      CODE     ---       #74
      00FF7F25H   LINE      CODE     ---       #75
      00FF7F27H   LINE      CODE     ---       #76
      00FF7F27H   LINE      CODE     ---       #77
      00FF7F2AH   LINE      CODE     ---       #78
      00FF7F2AH   LINE      CODE     ---       #79
      00FF7F2AH   LINE      CODE     ---       #81
      00FF7F2DH   LINE      CODE     ---       #82
      00FF7F3CH   LINE      CODE     ---       #84
      00FF7F3CH   LINE      CODE     ---       #86
      00FF7F3EH   LINE      CODE     ---       #87
      00FF7F3EH   LINE      CODE     ---       #88
      00FF7F41H   LINE      CODE     ---       #89
      00FF7F43H   LINE      CODE     ---       #90
      00FF7F43H   LINE      CODE     ---       #91
      00FF7F46H   LINE      CODE     ---       #92
      00FF7F48H   LINE      CODE     ---       #93
      00FF7F48H   LINE      CODE     ---       #94
      00FF7F4BH   LINE      CODE     ---       #95
L251 LINKER/LOCATER V4.66.93.0                                                        06/21/2025  18:27:27  PAGE 41


      00FF7F4BH   LINE      CODE     ---       #96
      00FF7F4BH   LINE      CODE     ---       #99
      00FF7F53H   LINE      CODE     ---       #101
      00FF7F5DH   LINE      CODE     ---       #103
      00FF7F60H   LINE      CODE     ---       #104
      00FF7F63H   LINE      CODE     ---       #105
      00FF7F63H   LINE      CODE     ---       #109
      00FF7F63H   LINE      CODE     ---       #110
      00FF7F66H   LINE      CODE     ---       #111
      ---         BLOCKEND  ---      ---       LVL=0

      00FF9240H   BLOCK     CODE     ---       LVL=0
      00000EB0H   SYMBOL    EDATA    BYTE      dat
      00FF9240H   LINE      CODE     ---       #121
      00FF9244H   LINE      CODE     ---       #123
      00FF9246H   LINE      CODE     ---       #124
      00FF924BH   LINE      CODE     ---       #125
      00FF924FH   LINE      CODE     ---       #126
      00FF9251H   LINE      CODE     ---       #127
      ---         BLOCKEND  ---      ---       LVL=0
      00000E98H   SYMBOL    EDATA    INT       spi_n
      00000EB1H   SYMBOL    EDATA    BYTE      mode

      ---         MODULE    ---      ---       zf_tim
      00FF824DH   PUBLIC    CODE     ---       ctimer_count_read
      00FF7CE3H   PUBLIC    CODE     ---       pit_timer_ms
      00FF8D05H   PUBLIC    CODE     ---       ctimer_count_init
      00FF8BA2H   PUBLIC    CODE     ---       ctimer_count_clean
      000000D0H   SFRSYM    DATA     BYTE      PSW
      0000009DH   SFRSYM    DATA     BYTE      IRCBAND
      00000097H   SFRSYM    DATA     BYTE      AUXR2
      000000EFH   SFRSYM    DATA     BYTE      AUXINTIF
      000000FDH   SFRSYM    DATA     BYTE      S4CON
      000000ACH   SFRSYM    DATA     BYTE      S3CON
      0000009AH   SFRSYM    DATA     BYTE      S2CON
      000000B7H   SFRSYM    DATA     BYTE      IPH
      000000CDH   SFRSYM    DATA     BYTE      SPSTAT
      000000DDH   SFRSYM    DATA     BYTE      T4T3M
      000000C1H   SFRSYM    DATA     BYTE      WDT_CONTR
      00000088H.6 SFRSYM    DATA     BIT       TR1
      00000088H.4 SFRSYM    DATA     BIT       TR0
      000000D3H   SFRSYM    DATA     BYTE      T4L
      000000D5H   SFRSYM    DATA     BYTE      T3L
      000000D7H   SFRSYM    DATA     BYTE      T2L
      0000008BH   SFRSYM    DATA     BYTE      TL1
      0000008AH   SFRSYM    DATA     BYTE      TL0
      000000D2H   SFRSYM    DATA     BYTE      T4H
      000000D4H   SFRSYM    DATA     BYTE      T3H
      000000D6H   SFRSYM    DATA     BYTE      T2H
      0000008DH   SFRSYM    DATA     BYTE      TH1
      0000008CH   SFRSYM    DATA     BYTE      TH0
      000000DFH   SFRSYM    DATA     BYTE      IP3
      000000F4H   SFRSYM    DATA     BYTE      USBCON
      000000B5H   SFRSYM    DATA     BYTE      IP2
      000000FFH   SFRSYM    DATA     BYTE      RSTCFG
      000000A8H.3 SFRSYM    DATA     BIT       ET1
      000000A8H.1 SFRSYM    DATA     BIT       ET0
      000000F9H   SFRSYM    DATA     BYTE      LINICR
      0000008EH   SFRSYM    DATA     BYTE      AUXR
      000000AFH   SFRSYM    DATA     BYTE      IE2
      00000088H   SFRSYM    DATA     BYTE      TCON
      00000089H   SFRSYM    DATA     BYTE      TMOD
      00000098H   SFRSYM    DATA     BYTE      SCON
      000000F1H   SFRSYM    DATA     BYTE      CANICR
      00000087H   SFRSYM    DATA     BYTE      PCON
L251 LINKER/LOCATER V4.66.93.0                                                        06/21/2025  18:27:27  PAGE 42


      000000BCH   SFRSYM    DATA     BYTE      ADC_CONTR
      000000E7H   SFRSYM    DATA     BYTE      CMPCR2
      000000E6H   SFRSYM    DATA     BYTE      CMPCR1
      000000B8H   SFRSYM    DATA     BYTE      IP
      0000008FH   SFRSYM    DATA     BYTE      INTCLKO
      000000EEH   SFRSYM    DATA     BYTE      IP3H
      000000B6H   SFRSYM    DATA     BYTE      IP2H
      000000A8H   SFRSYM    DATA     BYTE      IE
      000000BBH   SFRSYM    DATA     BYTE      P_SW3
      000000BAH   SFRSYM    DATA     BYTE      P_SW2
      000000A2H   SFRSYM    DATA     BYTE      P_SW1
      000000CEH   SFRSYM    DATA     BYTE      SPCTL
      000000F8H   SFRSYM    DATA     BYTE      P7
      000000E8H   SFRSYM    DATA     BYTE      P6
      000000C8H   SFRSYM    DATA     BYTE      P5
      000000C0H   SFRSYM    DATA     BYTE      P4
      000000B0H   SFRSYM    DATA     BYTE      P3
      000000A0H   SFRSYM    DATA     BYTE      P2
      00000090H   SFRSYM    DATA     BYTE      P1
      00000080H   SFRSYM    DATA     BYTE      P0

      00FF8D05H   BLOCK     CODE     ---       LVL=0
      00000E9AH   SYMBOL    EDATA    INT       tim_n
      00FF8D05H   LINE      CODE     ---       #39
      00FF8D09H   LINE      CODE     ---       #42
      00FF8D1DH   LINE      CODE     ---       #44
      00FF8D1DH   LINE      CODE     ---       #46
      00FF8D20H   LINE      CODE     ---       #47
      00FF8D23H   LINE      CODE     ---       #48
      00FF8D26H   LINE      CODE     ---       #49
      00FF8D29H   LINE      CODE     ---       #50
      00FF8D2BH   LINE      CODE     ---       #53
      00FF8D2BH   LINE      CODE     ---       #55
      00FF8D2EH   LINE      CODE     ---       #56
      00FF8D31H   LINE      CODE     ---       #57
      00FF8D34H   LINE      CODE     ---       #58
      00FF8D37H   LINE      CODE     ---       #59
      00FF8D39H   LINE      CODE     ---       #62
      00FF8D39H   LINE      CODE     ---       #64
      00FF8D3CH   LINE      CODE     ---       #65
      00FF8D3FH   LINE      CODE     ---       #66
      00FF8D42H   LINE      CODE     ---       #67
      00FF8D44H   LINE      CODE     ---       #70
      00FF8D44H   LINE      CODE     ---       #72
      00FF8D47H   LINE      CODE     ---       #73
      00FF8D4AH   LINE      CODE     ---       #74
      00FF8D4DH   LINE      CODE     ---       #75
      00FF8D4FH   LINE      CODE     ---       #78
      00FF8D4FH   LINE      CODE     ---       #80
      00FF8D52H   LINE      CODE     ---       #81
      00FF8D55H   LINE      CODE     ---       #82
      00FF8D58H   LINE      CODE     ---       #83
      00FF8D58H   LINE      CODE     ---       #86
      00FF8D58H   LINE      CODE     ---       #87
      ---         BLOCKEND  ---      ---       LVL=0

      00FF824DH   BLOCK     CODE     ---       LVL=0
      00000E7AH   SYMBOL    EDATA    INT       tim_n
      00FF8251H   BLOCK     CODE     NEAR LAB  LVL=1
      00000E7CH   SYMBOL    EDATA    WORD      dat
      ---         BLOCKEND  ---      ---       LVL=1
      00FF824DH   LINE      CODE     ---       #95
      00FF8251H   LINE      CODE     ---       #96
      00FF8251H   LINE      CODE     ---       #97
      00FF8257H   LINE      CODE     ---       #99
L251 LINKER/LOCATER V4.66.93.0                                                        06/21/2025  18:27:27  PAGE 43


      00FF8272H   LINE      CODE     ---       #101
      00FF8272H   LINE      CODE     ---       #103
      00FF827EH   LINE      CODE     ---       #104
      00FF828CH   LINE      CODE     ---       #105
      00FF828EH   LINE      CODE     ---       #107
      00FF828EH   LINE      CODE     ---       #109
      00FF829AH   LINE      CODE     ---       #110
      00FF82A8H   LINE      CODE     ---       #111
      00FF82AAH   LINE      CODE     ---       #113
      00FF82AAH   LINE      CODE     ---       #115
      00FF82B6H   LINE      CODE     ---       #116
      00FF82C4H   LINE      CODE     ---       #117
      00FF82C6H   LINE      CODE     ---       #119
      00FF82C6H   LINE      CODE     ---       #121
      00FF82D2H   LINE      CODE     ---       #122
      00FF82E0H   LINE      CODE     ---       #123
      00FF82E2H   LINE      CODE     ---       #125
      00FF82E2H   LINE      CODE     ---       #127
      00FF82EEH   LINE      CODE     ---       #128
      00FF82FCH   LINE      CODE     ---       #129
      00FF82FCH   LINE      CODE     ---       #132
      00FF82FCH   LINE      CODE     ---       #133
      00FF8300H   LINE      CODE     ---       #134
      ---         BLOCKEND  ---      ---       LVL=0

      00FF8BA2H   BLOCK     CODE     ---       LVL=0
      00000E9CH   SYMBOL    EDATA    INT       tim_n
      00FF8BA2H   LINE      CODE     ---       #143
      00FF8BA6H   LINE      CODE     ---       #145
      00FF8BBAH   LINE      CODE     ---       #147
      00FF8BBAH   LINE      CODE     ---       #149
      00FF8BBDH   LINE      CODE     ---       #150
      00FF8BC0H   LINE      CODE     ---       #151
      00FF8BC3H   LINE      CODE     ---       #152
      00FF8BC6H   LINE      CODE     ---       #153
      00FF8BC8H   LINE      CODE     ---       #155
      00FF8BC8H   LINE      CODE     ---       #157
      00FF8BCBH   LINE      CODE     ---       #158
      00FF8BCEH   LINE      CODE     ---       #159
      00FF8BD1H   LINE      CODE     ---       #160
      00FF8BD4H   LINE      CODE     ---       #161
      00FF8BD6H   LINE      CODE     ---       #163
      00FF8BD6H   LINE      CODE     ---       #165
      00FF8BD9H   LINE      CODE     ---       #166
      00FF8BDCH   LINE      CODE     ---       #167
      00FF8BDFH   LINE      CODE     ---       #168
      00FF8BE2H   LINE      CODE     ---       #169
      00FF8BE4H   LINE      CODE     ---       #171
      00FF8BE4H   LINE      CODE     ---       #173
      00FF8BE7H   LINE      CODE     ---       #174
      00FF8BEAH   LINE      CODE     ---       #175
      00FF8BEDH   LINE      CODE     ---       #176
      00FF8BF0H   LINE      CODE     ---       #177
      00FF8BF2H   LINE      CODE     ---       #179
      00FF8BF2H   LINE      CODE     ---       #181
      00FF8BF5H   LINE      CODE     ---       #182
      00FF8BF8H   LINE      CODE     ---       #183
      00FF8BFBH   LINE      CODE     ---       #184
      00FF8BFEH   LINE      CODE     ---       #185
      00FF8BFEH   LINE      CODE     ---       #187
      00FF8BFEH   LINE      CODE     ---       #188
      ---         BLOCKEND  ---      ---       LVL=0

      00FF7CE3H   BLOCK     CODE     ---       LVL=0
      00000DE3H   SYMBOL    EDATA    INT       tim_n
L251 LINKER/LOCATER V4.66.93.0                                                        06/21/2025  18:27:27  PAGE 44


      00000DE5H   SYMBOL    EDATA    WORD      time_ms
      00FF7CEBH   BLOCK     CODE     NEAR LAB  LVL=1
      00000DE7H   SYMBOL    EDATA    WORD      temp
      ---         BLOCKEND  ---      ---       LVL=1
      00FF7CE3H   LINE      CODE     ---       #198
      00FF7CEBH   LINE      CODE     ---       #199
      00FF7CEBH   LINE      CODE     ---       #201
      00FF7D0EH   LINE      CODE     ---       #203
      00FF7D18H   LINE      CODE     ---       #205
      00FF7D1CH   LINE      CODE     ---       #206
      00FF7D22H   LINE      CODE     ---       #207
      00FF7D2CH   LINE      CODE     ---       #208
      00FF7D2FH   LINE      CODE     ---       #209
      00FF7D32H   LINE      CODE     ---       #210
      00FF7D35H   LINE      CODE     ---       #211
      00FF7D41H   LINE      CODE     ---       #213
      00FF7D45H   LINE      CODE     ---       #214
      00FF7D4BH   LINE      CODE     ---       #215
      00FF7D55H   LINE      CODE     ---       #216
      00FF7D58H   LINE      CODE     ---       #217
      00FF7D5BH   LINE      CODE     ---       #218
      00FF7D5DH   LINE      CODE     ---       #219
      00FF7D69H   LINE      CODE     ---       #221
      00FF7D6FH   LINE      CODE     ---       #222
      00FF7D79H   LINE      CODE     ---       #223
      00FF7D7CH   LINE      CODE     ---       #224
      00FF7D7FH   LINE      CODE     ---       #225
      00FF7D81H   LINE      CODE     ---       #226
      00FF7D8DH   LINE      CODE     ---       #228
      00FF7D93H   LINE      CODE     ---       #229
      00FF7D9DH   LINE      CODE     ---       #230
      00FF7DA0H   LINE      CODE     ---       #231
      00FF7DA3H   LINE      CODE     ---       #232
      00FF7DA5H   LINE      CODE     ---       #233
      00FF7DB1H   LINE      CODE     ---       #235
      00FF7DB7H   LINE      CODE     ---       #236
      00FF7DC1H   LINE      CODE     ---       #237
      00FF7DC4H   LINE      CODE     ---       #238
      00FF7DC7H   LINE      CODE     ---       #239
      ---         BLOCKEND  ---      ---       LVL=0

      ---         MODULE    ---      ---       zf_uart
      00FF891CH   PUBLIC    CODE     ---       uart_putchar
      00FF678AH   PUBLIC    CODE     ---       uart_init
      00000E3DH   PUBLIC    EDATA    ---       busy
      00000BE0H   PUBLIC    EDATA    BYTE      ?uart_init?BYTE
      00000CE2H   PUBLIC    EDATA    BYTE      ?uart_putbuff?BYTE
      000000D0H   SFRSYM    DATA     BYTE      PSW
      0000009DH   SFRSYM    DATA     BYTE      IRCBAND
      00000097H   SFRSYM    DATA     BYTE      AUXR2
      000000EFH   SFRSYM    DATA     BYTE      AUXINTIF
      000000FDH   SFRSYM    DATA     BYTE      S4CON
      000000ACH   SFRSYM    DATA     BYTE      S3CON
      0000009AH   SFRSYM    DATA     BYTE      S2CON
      000000FEH   SFRSYM    DATA     BYTE      S4BUF
      000000ADH   SFRSYM    DATA     BYTE      S3BUF
      0000009BH   SFRSYM    DATA     BYTE      S2BUF
      000000B7H   SFRSYM    DATA     BYTE      IPH
      000000CDH   SFRSYM    DATA     BYTE      SPSTAT
      000000DDH   SFRSYM    DATA     BYTE      T4T3M
      000000C1H   SFRSYM    DATA     BYTE      WDT_CONTR
      00000088H.6 SFRSYM    DATA     BIT       TR1
      000000D3H   SFRSYM    DATA     BYTE      T4L
      000000D5H   SFRSYM    DATA     BYTE      T3L
      000000D7H   SFRSYM    DATA     BYTE      T2L
L251 LINKER/LOCATER V4.66.93.0                                                        06/21/2025  18:27:27  PAGE 45


      0000008BH   SFRSYM    DATA     BYTE      TL1
      000000D2H   SFRSYM    DATA     BYTE      T4H
      000000D4H   SFRSYM    DATA     BYTE      T3H
      000000D6H   SFRSYM    DATA     BYTE      T2H
      0000008DH   SFRSYM    DATA     BYTE      TH1
      000000DFH   SFRSYM    DATA     BYTE      IP3
      000000F4H   SFRSYM    DATA     BYTE      USBCON
      000000B5H   SFRSYM    DATA     BYTE      IP2
      000000FFH   SFRSYM    DATA     BYTE      RSTCFG
      000000F9H   SFRSYM    DATA     BYTE      LINICR
      0000008EH   SFRSYM    DATA     BYTE      AUXR
      000000AFH   SFRSYM    DATA     BYTE      IE2
      00000088H   SFRSYM    DATA     BYTE      TCON
      00000089H   SFRSYM    DATA     BYTE      TMOD
      00000098H   SFRSYM    DATA     BYTE      SCON
      000000F1H   SFRSYM    DATA     BYTE      CANICR
      00000087H   SFRSYM    DATA     BYTE      PCON
      00000099H   SFRSYM    DATA     BYTE      SBUF
      000000BCH   SFRSYM    DATA     BYTE      ADC_CONTR
      000000E7H   SFRSYM    DATA     BYTE      CMPCR2
      000000E6H   SFRSYM    DATA     BYTE      CMPCR1
      000000B8H   SFRSYM    DATA     BYTE      IP
      000000A8H.4 SFRSYM    DATA     BIT       ES
      0000008FH   SFRSYM    DATA     BYTE      INTCLKO
      000000EEH   SFRSYM    DATA     BYTE      IP3H
      000000B6H   SFRSYM    DATA     BYTE      IP2H
      000000A8H   SFRSYM    DATA     BYTE      IE
      000000BBH   SFRSYM    DATA     BYTE      P_SW3
      000000BAH   SFRSYM    DATA     BYTE      P_SW2
      000000A2H   SFRSYM    DATA     BYTE      P_SW1
      000000CEH   SFRSYM    DATA     BYTE      SPCTL
      000000F8H   SFRSYM    DATA     BYTE      P7
      000000E8H   SFRSYM    DATA     BYTE      P6
      000000C8H   SFRSYM    DATA     BYTE      P5
      000000C0H   SFRSYM    DATA     BYTE      P4
      000000C9H   SFRSYM    DATA     BYTE      P5M1
      000000B0H   SFRSYM    DATA     BYTE      P3
      000000CAH   SFRSYM    DATA     BYTE      P5M0
      000000A0H   SFRSYM    DATA     BYTE      P2
      00000090H   SFRSYM    DATA     BYTE      P1
      00000080H   SFRSYM    DATA     BYTE      P0

      00FF678AH   BLOCK     CODE     ---       LVL=0
      00000BE0H   SYMBOL    EDATA    INT       uart_n
      00000BE2H   SYMBOL    EDATA    INT       uart_rx_pin
      00000BE4H   SYMBOL    EDATA    INT       uart_tx_pin
      00000BE6H   SYMBOL    EDATA    DWORD     baud
      00000BEAH   SYMBOL    EDATA    INT       tim_n
      00FF679AH   BLOCK     CODE     NEAR LAB  LVL=1
      00000BECH   SYMBOL    EDATA    WORD      brt
      ---         BLOCKEND  ---      ---       LVL=1
      00FF678AH   LINE      CODE     ---       #42
      00FF679AH   LINE      CODE     ---       #43
      00FF679AH   LINE      CODE     ---       #46
      00FF67C1H   LINE      CODE     ---       #49
      00FF67E3H   LINE      CODE     ---       #51
      00FF67E3H   LINE      CODE     ---       #53
      00FF67EFH   LINE      CODE     ---       #55
      00FF67F2H   LINE      CODE     ---       #56
      00FF67F6H   LINE      CODE     ---       #57
      00FF67FCH   LINE      CODE     ---       #58
      00FF6806H   LINE      CODE     ---       #59
      00FF6809H   LINE      CODE     ---       #60
      00FF680CH   LINE      CODE     ---       #61
      00FF6811H   LINE      CODE     ---       #62
L251 LINKER/LOCATER V4.66.93.0                                                        06/21/2025  18:27:27  PAGE 46


      00FF6813H   LINE      CODE     ---       #63
      00FF681FH   LINE      CODE     ---       #65
      00FF6822H   LINE      CODE     ---       #66
      00FF6828H   LINE      CODE     ---       #67
      00FF6832H   LINE      CODE     ---       #68
      00FF6835H   LINE      CODE     ---       #69
      00FF6835H   LINE      CODE     ---       #70
      00FF6838H   LINE      CODE     ---       #71
      00FF684EH   LINE      CODE     ---       #73
      00FF6852H   LINE      CODE     ---       #74
      00FF6854H   LINE      CODE     ---       #75
      00FF686CH   LINE      CODE     ---       #77
      00FF686FH   LINE      CODE     ---       #78
      00FF6871H   LINE      CODE     ---       #79
      00FF6889H   LINE      CODE     ---       #81
      00FF688CH   LINE      CODE     ---       #82
      00FF688EH   LINE      CODE     ---       #83
      00FF68A6H   LINE      CODE     ---       #85
      00FF68A9H   LINE      CODE     ---       #86
      00FF68A9H   LINE      CODE     ---       #87
      00FF68AEH   LINE      CODE     ---       #88
      00FF68B1H   LINE      CODE     ---       #89
      00FF68B4H   LINE      CODE     ---       #92
      00FF68B4H   LINE      CODE     ---       #94
      00FF68C0H   LINE      CODE     ---       #96
      00FF68C3H   LINE      CODE     ---       #97
      00FF68C9H   LINE      CODE     ---       #98
      00FF68D3H   LINE      CODE     ---       #99
      00FF68D6H   LINE      CODE     ---       #100
      00FF68D6H   LINE      CODE     ---       #102
      00FF68D9H   LINE      CODE     ---       #103
      00FF68F1H   LINE      CODE     ---       #105
      00FF68F5H   LINE      CODE     ---       #106
      00FF68F7H   LINE      CODE     ---       #107
      00FF690FH   LINE      CODE     ---       #109
      00FF6912H   LINE      CODE     ---       #110
      00FF6912H   LINE      CODE     ---       #112
      00FF6915H   LINE      CODE     ---       #113
      00FF691AH   LINE      CODE     ---       #114
      00FF691DH   LINE      CODE     ---       #117
      00FF691DH   LINE      CODE     ---       #119
      00FF6929H   LINE      CODE     ---       #121
      00FF692CH   LINE      CODE     ---       #122
      00FF6932H   LINE      CODE     ---       #123
      00FF693CH   LINE      CODE     ---       #124
      00FF693FH   LINE      CODE     ---       #125
      00FF6941H   LINE      CODE     ---       #126
      00FF694DH   LINE      CODE     ---       #128
      00FF6950H   LINE      CODE     ---       #129
      00FF6956H   LINE      CODE     ---       #130
      00FF6960H   LINE      CODE     ---       #131
      00FF6963H   LINE      CODE     ---       #132
      00FF6963H   LINE      CODE     ---       #134
      00FF6966H   LINE      CODE     ---       #135
      00FF697EH   LINE      CODE     ---       #137
      00FF6982H   LINE      CODE     ---       #138
      00FF6984H   LINE      CODE     ---       #139
      00FF699CH   LINE      CODE     ---       #141
      00FF699FH   LINE      CODE     ---       #142
      00FF699FH   LINE      CODE     ---       #144
      00FF69A2H   LINE      CODE     ---       #145
      00FF69A7H   LINE      CODE     ---       #146
      00FF69AAH   LINE      CODE     ---       #149
      00FF69AAH   LINE      CODE     ---       #151
      00FF69B6H   LINE      CODE     ---       #153
L251 LINKER/LOCATER V4.66.93.0                                                        06/21/2025  18:27:27  PAGE 47


      00FF69B9H   LINE      CODE     ---       #154
      00FF69BFH   LINE      CODE     ---       #155
      00FF69C9H   LINE      CODE     ---       #156
      00FF69CCH   LINE      CODE     ---       #157
      00FF69CEH   LINE      CODE     ---       #158
      00FF69DAH   LINE      CODE     ---       #160
      00FF69DDH   LINE      CODE     ---       #161
      00FF69E3H   LINE      CODE     ---       #162
      00FF69EDH   LINE      CODE     ---       #163
      00FF69F0H   LINE      CODE     ---       #164
      00FF69F0H   LINE      CODE     ---       #166
      00FF69F3H   LINE      CODE     ---       #167
      00FF6A0BH   LINE      CODE     ---       #169
      00FF6A0FH   LINE      CODE     ---       #170
      00FF6A11H   LINE      CODE     ---       #171
      00FF6A29H   LINE      CODE     ---       #173
      00FF6A2CH   LINE      CODE     ---       #174
      00FF6A30H   LINE      CODE     ---       #175
      00FF6A33H   LINE      CODE     ---       #176
      00FF6A33H   LINE      CODE     ---       #177
      00FF6A36H   LINE      CODE     ---       #178
      00FF6A3BH   LINE      CODE     ---       #179
      00FF6A3BH   LINE      CODE     ---       #182
      00FF6A3BH   LINE      CODE     ---       #184
      ---         BLOCKEND  ---      ---       LVL=0

      00FF891CH   BLOCK     CODE     ---       LVL=0
      00000E8DH   SYMBOL    EDATA    INT       uart_n
      00000E8FH   SYMBOL    EDATA    BYTE      dat
      00FF891CH   LINE      CODE     ---       #193
      00FF8924H   LINE      CODE     ---       #195
      00FF8936H   LINE      CODE     ---       #197
      00FF8936H   LINE      CODE     ---       #198
      00FF893FH   LINE      CODE     ---       #199
      00FF8945H   LINE      CODE     ---       #200
      00FF894BH   LINE      CODE     ---       #201
      00FF894DH   LINE      CODE     ---       #202
      00FF894DH   LINE      CODE     ---       #203
      00FF8956H   LINE      CODE     ---       #204
      00FF895CH   LINE      CODE     ---       #205
      00FF8962H   LINE      CODE     ---       #206
      00FF8964H   LINE      CODE     ---       #207
      00FF8964H   LINE      CODE     ---       #208
      00FF896DH   LINE      CODE     ---       #209
      00FF8973H   LINE      CODE     ---       #210
      00FF8979H   LINE      CODE     ---       #211
      00FF897BH   LINE      CODE     ---       #212
      00FF897BH   LINE      CODE     ---       #213
      00FF8984H   LINE      CODE     ---       #214
      00FF898AH   LINE      CODE     ---       #215
      00FF8990H   LINE      CODE     ---       #216
      00FF8990H   LINE      CODE     ---       #217
      00FF8990H   LINE      CODE     ---       #218
      ---         BLOCKEND  ---      ---       LVL=0
      00000CE2H   SYMBOL    EDATA    INT       uart_n
      00000CE4H   SYMBOL    EDATA    ---       p
      00000CE8H   SYMBOL    EDATA    DWORD     len
      00000DE9H   SYMBOL    EDATA    INT       uart_n
      00000DEBH   SYMBOL    EDATA    ---       str

      ---         MODULE    ---      ---       zf_fifo
      00FF553BH   PUBLIC    CODE     ---       fifo_write_buffer
      00FF872EH   PUBLIC    CODE     ---       fifo_init
      00000B62H   PUBLIC    EDATA    BYTE      ?fifo_write_buffer?BYTE
      00000C32H   PUBLIC    EDATA    BYTE      ?fifo_read_element?BYTE
L251 LINKER/LOCATER V4.66.93.0                                                        06/21/2025  18:27:27  PAGE 48


      00000008H   PUBLIC    EDATA    BYTE      ?fifo_read_buffer?BYTE
      00000AE2H   PUBLIC    EDATA    BYTE      ?fifo_read_tail_buffer?BYTE
      00000B74H   PUBLIC    EDATA    BYTE      ?fifo_init?BYTE
      000000D0H   SFRSYM    DATA     BYTE      PSW
      0000009DH   SFRSYM    DATA     BYTE      IRCBAND
      00000097H   SFRSYM    DATA     BYTE      AUXR2
      000000EFH   SFRSYM    DATA     BYTE      AUXINTIF
      000000FDH   SFRSYM    DATA     BYTE      S4CON
      000000ACH   SFRSYM    DATA     BYTE      S3CON
      0000009AH   SFRSYM    DATA     BYTE      S2CON
      000000B7H   SFRSYM    DATA     BYTE      IPH
      000000CDH   SFRSYM    DATA     BYTE      SPSTAT
      000000DDH   SFRSYM    DATA     BYTE      T4T3M
      000000C1H   SFRSYM    DATA     BYTE      WDT_CONTR
      000000DFH   SFRSYM    DATA     BYTE      IP3
      000000F4H   SFRSYM    DATA     BYTE      USBCON
      000000B5H   SFRSYM    DATA     BYTE      IP2
      000000FFH   SFRSYM    DATA     BYTE      RSTCFG
      000000F9H   SFRSYM    DATA     BYTE      LINICR
      0000008EH   SFRSYM    DATA     BYTE      AUXR
      000000AFH   SFRSYM    DATA     BYTE      IE2
      00000088H   SFRSYM    DATA     BYTE      TCON
      00000098H   SFRSYM    DATA     BYTE      SCON
      000000F1H   SFRSYM    DATA     BYTE      CANICR
      00000087H   SFRSYM    DATA     BYTE      PCON
      000000BCH   SFRSYM    DATA     BYTE      ADC_CONTR
      000000E7H   SFRSYM    DATA     BYTE      CMPCR2
      000000E6H   SFRSYM    DATA     BYTE      CMPCR1
      000000B8H   SFRSYM    DATA     BYTE      IP
      0000008FH   SFRSYM    DATA     BYTE      INTCLKO
      000000EEH   SFRSYM    DATA     BYTE      IP3H
      000000B6H   SFRSYM    DATA     BYTE      IP2H
      000000A8H   SFRSYM    DATA     BYTE      IE
      000000BBH   SFRSYM    DATA     BYTE      P_SW3
      000000BAH   SFRSYM    DATA     BYTE      P_SW2
      000000A2H   SFRSYM    DATA     BYTE      P_SW1
      000000CEH   SFRSYM    DATA     BYTE      SPCTL
      000000F8H   SFRSYM    DATA     BYTE      P7
      000000E8H   SFRSYM    DATA     BYTE      P6
      000000C8H   SFRSYM    DATA     BYTE      P5
      000000C0H   SFRSYM    DATA     BYTE      P4
      000000B0H   SFRSYM    DATA     BYTE      P3
      000000A0H   SFRSYM    DATA     BYTE      P2
      00000090H   SFRSYM    DATA     BYTE      P1
      00000080H   SFRSYM    DATA     BYTE      P0
      00FF8A05H   SYMBOL    CODE     ---       fifo_head_offset

      00FF8A05H   BLOCK     CODE     ---       LVL=0
      00000D78H   SYMBOL    EDATA    ---       fifo
      00000D7CH   SYMBOL    EDATA    DWORD     offset
      00FF8A05H   LINE      CODE     ---       #42
      00FF8A0DH   LINE      CODE     ---       #44
      00FF8A29H   LINE      CODE     ---       #46
      00FF8A2BH   LINE      CODE     ---       #48
      00FF8A52H   LINE      CODE     ---       #49
      00FF8A74H   LINE      CODE     ---       #50
      ---         BLOCKEND  ---      ---       LVL=0
      00000D80H   SYMBOL    EDATA    ---       fifo
      00000D84H   SYMBOL    EDATA    DWORD     offset
      00000DEFH   SYMBOL    EDATA    ---       fifo
      00000DF3H   SYMBOL    EDATA    INT       return_state
      00000E7EH   SYMBOL    EDATA    ---       fifo
      00000CECH   SYMBOL    EDATA    ---       fifo
      00000CF0H   SYMBOL    EDATA    DWORD     dat
      00000CF4H   SYMBOL    EDATA    INT       return_state
L251 LINKER/LOCATER V4.66.93.0                                                        06/21/2025  18:27:27  PAGE 49



      00FF553BH   BLOCK     CODE     ---       LVL=0
      00000B62H   SYMBOL    EDATA    ---       fifo
      00000B66H   SYMBOL    EDATA    ---       dat
      00000B6AH   SYMBOL    EDATA    DWORD     length
      00FF5543H   BLOCK     CODE     NEAR LAB  LVL=1
      00000B6EH   SYMBOL    EDATA    INT       return_state
      00000B70H   SYMBOL    EDATA    DWORD     temp_length
      ---         BLOCKEND  ---      ---       LVL=1
      00FF553BH   LINE      CODE     ---       #168
      00FF5543H   LINE      CODE     ---       #169
      00FF5543H   LINE      CODE     ---       #171
      00FF5549H   LINE      CODE     ---       #172
      00FF554FH   LINE      CODE     ---       #174
      00FF554FH   LINE      CODE     ---       #176
      00FF5557H   LINE      CODE     ---       #178
      00FF555FH   LINE      CODE     ---       #179
      00FF5562H   LINE      CODE     ---       #180
      00FF5562H   LINE      CODE     ---       #181
      00FF5577H   LINE      CODE     ---       #183
      00FF557FH   LINE      CODE     ---       #184
      00FF5582H   LINE      CODE     ---       #185
      00FF5582H   LINE      CODE     ---       #186
      00FF5590H   LINE      CODE     ---       #188
      00FF55AAH   LINE      CODE     ---       #190
      00FF55CEH   LINE      CODE     ---       #192
      00FF55DDH   LINE      CODE     ---       #194
      00FF55FBH   LINE      CODE     ---       #196
      00FF55FBH   LINE      CODE     ---       #198
      00FF562AH   LINE      CODE     ---       #201
      00FF5635H   LINE      CODE     ---       #202
      00FF5672H   LINE      CODE     ---       #206
      00FF5683H   LINE      CODE     ---       #207
      00FF5686H   LINE      CODE     ---       #208
      00FF5686H   LINE      CODE     ---       #210
      00FF56B9H   LINE      CODE     ---       #213
      00FF56C4H   LINE      CODE     ---       #214
      00FF5707H   LINE      CODE     ---       #218
      00FF5718H   LINE      CODE     ---       #219
      00FF571BH   LINE      CODE     ---       #220
      00FF571BH   LINE      CODE     ---       #222
      00FF5752H   LINE      CODE     ---       #225
      00FF575DH   LINE      CODE     ---       #226
      00FF57A6H   LINE      CODE     ---       #230
      00FF57B7H   LINE      CODE     ---       #231
      00FF57B7H   LINE      CODE     ---       #232
      00FF57B7H   LINE      CODE     ---       #233
      00FF57BAH   LINE      CODE     ---       #236
      00FF57D5H   LINE      CODE     ---       #238
      00FF57D5H   LINE      CODE     ---       #240
      00FF5804H   LINE      CODE     ---       #243
      00FF580FH   LINE      CODE     ---       #244
      00FF5812H   LINE      CODE     ---       #245
      00FF5812H   LINE      CODE     ---       #247
      00FF5845H   LINE      CODE     ---       #250
      00FF5850H   LINE      CODE     ---       #251
      00FF5852H   LINE      CODE     ---       #252
      00FF5852H   LINE      CODE     ---       #254
      00FF5889H   LINE      CODE     ---       #257
      00FF5894H   LINE      CODE     ---       #258
      00FF5894H   LINE      CODE     ---       #259
      00FF5894H   LINE      CODE     ---       #260
      00FF5894H   LINE      CODE     ---       #262
      00FF58B0H   LINE      CODE     ---       #263
      00FF58B2H   LINE      CODE     ---       #266
L251 LINKER/LOCATER V4.66.93.0                                                        06/21/2025  18:27:27  PAGE 50


      00FF58BAH   LINE      CODE     ---       #267
      00FF58BAH   LINE      CODE     ---       #268
      00FF58C8H   LINE      CODE     ---       #269
      00FF58C8H   LINE      CODE     ---       #271
      00FF58CCH   LINE      CODE     ---       #272
      ---         BLOCKEND  ---      ---       LVL=0
      00000C32H   SYMBOL    EDATA    ---       fifo
      00000C36H   SYMBOL    EDATA    ---       dat
      00000C3AH   SYMBOL    EDATA    INT       flag
      00000C3CH   SYMBOL    EDATA    INT       return_state
      00000008H   SYMBOL    EDATA    ---       fifo
      0000000CH   SYMBOL    EDATA    ---       dat
      00000010H   SYMBOL    EDATA    ---       length
      00000014H   SYMBOL    EDATA    INT       flag
      00000016H   SYMBOL    EDATA    INT       return_state
      00000018H   SYMBOL    EDATA    DWORD     temp_length
      0000001CH   SYMBOL    EDATA    DWORD     fifo_data_length
      00000AE2H   SYMBOL    EDATA    ---       fifo
      00000AE6H   SYMBOL    EDATA    ---       dat
      00000AEAH   SYMBOL    EDATA    ---       length
      00000AEEH   SYMBOL    EDATA    INT       flag
      00000AF0H   SYMBOL    EDATA    INT       return_state
      00000AF2H   SYMBOL    EDATA    DWORD     temp_length
      00000AF6H   SYMBOL    EDATA    DWORD     fifo_data_length

      00FF872EH   BLOCK     CODE     ---       LVL=0
      00000B74H   SYMBOL    EDATA    ---       fifo
      00000B78H   SYMBOL    EDATA    INT       type
      00000B7AH   SYMBOL    EDATA    ---       buffer_addr
      00000B7EH   SYMBOL    EDATA    DWORD     len
      00FF8736H   BLOCK     CODE     NEAR LAB  LVL=1
      00000B82H   SYMBOL    EDATA    INT       return_state
      ---         BLOCKEND  ---      ---       LVL=1
      00FF872EH   LINE      CODE     ---       #538
      00FF8736H   LINE      CODE     ---       #539
      00FF8736H   LINE      CODE     ---       #541
      00FF873CH   LINE      CODE     ---       #542
      00FF873CH   LINE      CODE     ---       #544
      00FF874FH   LINE      CODE     ---       #545
      00FF8757H   LINE      CODE     ---       #546
      00FF8764H   LINE      CODE     ---       #547
      00FF8775H   LINE      CODE     ---       #548
      00FF8786H   LINE      CODE     ---       #549
      00FF8799H   LINE      CODE     ---       #550
      00FF87ACH   LINE      CODE     ---       #551
      00FF87ACH   LINE      CODE     ---       #552
      00FF87B0H   LINE      CODE     ---       #553
      ---         BLOCKEND  ---      ---       LVL=0

      ---         MODULE    ---      ---       SEEKFREE_18TFT
      00FF7DC8H   PUBLIC    CODE     ---       lcd_showuint16
      00FF8C58H   PUBLIC    CODE     ---       lcd_clear
      00FF8A75H   PUBLIC    CODE     ---       lcd_showstr
      00FF9204H   PUBLIC    CODE     ---       lcd_writeIndex
      00FF9219H   PUBLIC    CODE     ---       lcd_writeData
      00FF8ADFH   PUBLIC    CODE     ---       lcd_set_region
      00FF707DH   PUBLIC    CODE     ---       lcd_init
      00FF909FH   PUBLIC    CODE     ---       lcd_writedata_16bit
      00FF787BH   PUBLIC    CODE     ---       lcd_show_font
      00FF75E2H   PUBLIC    CODE     ---       lcd_showfloat
      00FF8027H   PUBLIC    CODE     ---       lcd_showchar
      00000C3EH   PUBLIC    EDATA    BYTE      ?lcd_showfloat_simspi?BYTE
      00000C4AH   PUBLIC    EDATA    BYTE      ?lcd_showfloat?BYTE
      00000B3AH   PUBLIC    EDATA    BYTE      ?lcd_show_font?BYTE
      000000D0H   SFRSYM    DATA     BYTE      PSW
L251 LINKER/LOCATER V4.66.93.0                                                        06/21/2025  18:27:27  PAGE 51


      0000009DH   SFRSYM    DATA     BYTE      IRCBAND
      00000097H   SFRSYM    DATA     BYTE      AUXR2
      000000EFH   SFRSYM    DATA     BYTE      AUXINTIF
      000000FDH   SFRSYM    DATA     BYTE      S4CON
      000000ACH   SFRSYM    DATA     BYTE      S3CON
      0000009AH   SFRSYM    DATA     BYTE      S2CON
      000000B7H   SFRSYM    DATA     BYTE      IPH
      000000CDH   SFRSYM    DATA     BYTE      SPSTAT
      000000DDH   SFRSYM    DATA     BYTE      T4T3M
      000000C1H   SFRSYM    DATA     BYTE      WDT_CONTR
      000000DFH   SFRSYM    DATA     BYTE      IP3
      000000F4H   SFRSYM    DATA     BYTE      USBCON
      000000B5H   SFRSYM    DATA     BYTE      IP2
      000000FFH   SFRSYM    DATA     BYTE      RSTCFG
      000000F9H   SFRSYM    DATA     BYTE      LINICR
      0000008EH   SFRSYM    DATA     BYTE      AUXR
      000000AFH   SFRSYM    DATA     BYTE      IE2
      000000A0H.5 SFRSYM    DATA     BIT       P25
      00000088H   SFRSYM    DATA     BYTE      TCON
      000000A0H.3 SFRSYM    DATA     BIT       P23
      00000098H   SFRSYM    DATA     BYTE      SCON
      000000A0H.2 SFRSYM    DATA     BIT       P22
      000000A0H.1 SFRSYM    DATA     BIT       P21
      000000A0H.0 SFRSYM    DATA     BIT       P20
      000000F1H   SFRSYM    DATA     BYTE      CANICR
      00000087H   SFRSYM    DATA     BYTE      PCON
      000000BCH   SFRSYM    DATA     BYTE      ADC_CONTR
      000000E7H   SFRSYM    DATA     BYTE      CMPCR2
      000000E6H   SFRSYM    DATA     BYTE      CMPCR1
      000000B8H   SFRSYM    DATA     BYTE      IP
      0000008FH   SFRSYM    DATA     BYTE      INTCLKO
      000000EEH   SFRSYM    DATA     BYTE      IP3H
      000000B6H   SFRSYM    DATA     BYTE      IP2H
      000000A8H   SFRSYM    DATA     BYTE      IE
      000000BBH   SFRSYM    DATA     BYTE      P_SW3
      000000BAH   SFRSYM    DATA     BYTE      P_SW2
      000000A2H   SFRSYM    DATA     BYTE      P_SW1
      000000CEH   SFRSYM    DATA     BYTE      SPCTL
      000000F8H   SFRSYM    DATA     BYTE      P7
      000000E8H   SFRSYM    DATA     BYTE      P6
      000000C8H   SFRSYM    DATA     BYTE      P5
      000000C0H   SFRSYM    DATA     BYTE      P4
      000000B0H   SFRSYM    DATA     BYTE      P3
      000000A0H   SFRSYM    DATA     BYTE      P2
      00000090H   SFRSYM    DATA     BYTE      P1
      00000080H   SFRSYM    DATA     BYTE      P0
      00000EB2H   SYMBOL    EDATA    BYTE      dat
      00010211H   SYMBOL    XDATA    BYTE      i
      00000EB3H   SYMBOL    EDATA    BYTE      dat
      00010212H   SYMBOL    XDATA    BYTE      i
      00000E9EH   SYMBOL    EDATA    WORD      dat
      00010213H   SYMBOL    XDATA    BYTE      i
      00000D88H   SYMBOL    EDATA    WORD      x_start
      00000D8AH   SYMBOL    EDATA    WORD      y_start
      00000D8CH   SYMBOL    EDATA    WORD      x_end
      00000D8EH   SYMBOL    EDATA    WORD      y_end
      00000E90H   SYMBOL    EDATA    INT       color
      00010214H   SYMBOL    XDATA    BYTE      i
      00000E92H   SYMBOL    EDATA    BYTE      j
      00000DF5H   SYMBOL    EDATA    WORD      x
      00000DF7H   SYMBOL    EDATA    WORD      y
      00000DF9H   SYMBOL    EDATA    WORD      color
      00000DFBH   SYMBOL    EDATA    WORD      x
      00000DFDH   SYMBOL    EDATA    WORD      y
      00000DFFH   SYMBOL    EDATA    CHAR      dat
L251 LINKER/LOCATER V4.66.93.0                                                        06/21/2025  18:27:27  PAGE 52


      00010205H   SYMBOL    XDATA    BYTE      i
      00000E00H   SYMBOL    EDATA    BYTE      j
      00010206H   SYMBOL    XDATA    BYTE      temp
      00000D90H   SYMBOL    EDATA    WORD      x
      00000D92H   SYMBOL    EDATA    WORD      y
      00000D94H   SYMBOL    EDATA    ---       dat
      00010207H   SYMBOL    XDATA    WORD      j
      00000E42H   SYMBOL    EDATA    WORD      x
      00000E44H   SYMBOL    EDATA    WORD      y
      00000E46H   SYMBOL    EDATA    CHAR      dat
      000101EEH   SYMBOL    XDATA    ---       a
      000101F1H   SYMBOL    XDATA    BYTE      i
      00000E47H   SYMBOL    EDATA    WORD      x
      00000E49H   SYMBOL    EDATA    WORD      y
      00000E4BH   SYMBOL    EDATA    BYTE      dat
      000101F2H   SYMBOL    XDATA    ---       a
      000101F5H   SYMBOL    XDATA    BYTE      i
      00000E01H   SYMBOL    EDATA    WORD      x
      00000E03H   SYMBOL    EDATA    WORD      y
      00000E05H   SYMBOL    EDATA    INT       dat
      000101D6H   SYMBOL    XDATA    ---       a
      000101DBH   SYMBOL    XDATA    BYTE      i
      00000E07H   SYMBOL    EDATA    WORD      x
      00000E09H   SYMBOL    EDATA    WORD      y
      00000E0BH   SYMBOL    EDATA    WORD      dat
      000101DCH   SYMBOL    XDATA    ---       a
      000101E1H   SYMBOL    XDATA    BYTE      i
      00000D1EH   SYMBOL    EDATA    WORD      x
      00000D20H   SYMBOL    EDATA    WORD      y
      00000D22H   SYMBOL    EDATA    LONG      dat
      00000D26H   SYMBOL    EDATA    BYTE      num
      00010182H   SYMBOL    XDATA    ---       buff
      000101A4H   SYMBOL    XDATA    BYTE      length
      00000C3EH   SYMBOL    EDATA    WORD      x
      00000C40H   SYMBOL    EDATA    WORD      y
      00000C42H   SYMBOL    EDATA    FLOAT     dat
      00000C46H   SYMBOL    EDATA    BYTE      num
      00000C47H   SYMBOL    EDATA    BYTE      pointnum
      0001013AH   SYMBOL    XDATA    BYTE      length
      0001013BH   SYMBOL    XDATA    ---       buff
      0001015DH   SYMBOL    XDATA    CHAR      start
      00000C48H   SYMBOL    EDATA    CHAR      end
      00000C49H   SYMBOL    EDATA    CHAR      point

      00FF9204H   BLOCK     CODE     ---       LVL=0
      00000EB4H   SYMBOL    EDATA    BYTE      dat
      00FF9204H   LINE      CODE     ---       #607
      00FF9208H   LINE      CODE     ---       #610
      00FF920BH   LINE      CODE     ---       #611
      00FF920EH   LINE      CODE     ---       #612
      00FF9215H   LINE      CODE     ---       #613
      00FF9218H   LINE      CODE     ---       #614
      ---         BLOCKEND  ---      ---       LVL=0

      00FF9219H   BLOCK     CODE     ---       LVL=0
      00000EB5H   SYMBOL    EDATA    BYTE      dat
      00FF9219H   LINE      CODE     ---       #623
      00FF921DH   LINE      CODE     ---       #625
      00FF9220H   LINE      CODE     ---       #626
      00FF9223H   LINE      CODE     ---       #627
      00FF922AH   LINE      CODE     ---       #628
      00FF922DH   LINE      CODE     ---       #629
      ---         BLOCKEND  ---      ---       LVL=0

      00FF909FH   BLOCK     CODE     ---       LVL=0
L251 LINKER/LOCATER V4.66.93.0                                                        06/21/2025  18:27:27  PAGE 53


      00000EA0H   SYMBOL    EDATA    WORD      dat
      00FF90A3H   BLOCK     CODE     NEAR LAB  LVL=1
      00010209H   SYMBOL    XDATA    ---       dat1
      ---         BLOCKEND  ---      ---       LVL=1
      00FF909FH   LINE      CODE     ---       #638
      00FF90A3H   LINE      CODE     ---       #639
      00FF90A3H   LINE      CODE     ---       #642
      00FF90ABH   LINE      CODE     ---       #643
      00FF90B3H   LINE      CODE     ---       #645
      00FF90B6H   LINE      CODE     ---       #646
      00FF90B9H   LINE      CODE     ---       #647
      00FF90C0H   LINE      CODE     ---       #648
      00FF90C7H   LINE      CODE     ---       #649
      00FF90CAH   LINE      CODE     ---       #651
      ---         BLOCKEND  ---      ---       LVL=0

      00FF8ADFH   BLOCK     CODE     ---       LVL=0
      00000D98H   SYMBOL    EDATA    WORD      x_start
      00000D9AH   SYMBOL    EDATA    WORD      y_start
      00000D9CH   SYMBOL    EDATA    WORD      x_end
      00000D9EH   SYMBOL    EDATA    WORD      y_end
      00FF8ADFH   LINE      CODE     ---       #663
      00FF8AEFH   LINE      CODE     ---       #668
      00FF8AF4H   LINE      CODE     ---       #669
      00FF8AF8H   LINE      CODE     ---       #670
      00FF8B05H   LINE      CODE     ---       #671
      00FF8B09H   LINE      CODE     ---       #672
      00FF8B16H   LINE      CODE     ---       #674
      00FF8B1BH   LINE      CODE     ---       #675
      00FF8B1FH   LINE      CODE     ---       #676
      00FF8B2CH   LINE      CODE     ---       #677
      00FF8B30H   LINE      CODE     ---       #678
      00FF8B3DH   LINE      CODE     ---       #695
      00FF8B42H   LINE      CODE     ---       #696
      ---         BLOCKEND  ---      ---       LVL=0

      00FF8C58H   BLOCK     CODE     ---       LVL=0
      00000E93H   SYMBOL    EDATA    INT       color
      00FF8C5CH   BLOCK     CODE     NEAR LAB  LVL=1
      00010215H   SYMBOL    XDATA    BYTE      i
      00000E95H   SYMBOL    EDATA    BYTE      j
      ---         BLOCKEND  ---      ---       LVL=1
      00FF8C58H   LINE      CODE     ---       #705
      00FF8C5CH   LINE      CODE     ---       #706
      00FF8C5CH   LINE      CODE     ---       #708
      00FF8C6BH   LINE      CODE     ---       #709
      00FF8C72H   LINE      CODE     ---       #710
      00FF8C79H   LINE      CODE     ---       #711
      00FF8CAEH   LINE      CODE     ---       #712
      ---         BLOCKEND  ---      ---       LVL=0

      00FF707DH   BLOCK     CODE     ---       LVL=0
      00FF707DH   LINE      CODE     ---       #721
      00FF707DH   LINE      CODE     ---       #723
      00FF709DH   LINE      CODE     ---       #725
      00FF70A0H   LINE      CODE     ---       #726
      00FF70A7H   LINE      CODE     ---       #727
      00FF70AAH   LINE      CODE     ---       #728
      00FF70B1H   LINE      CODE     ---       #729
      00FF70B6H   LINE      CODE     ---       #730
      00FF70BDH   LINE      CODE     ---       #732
      00FF70C2H   LINE      CODE     ---       #733
      00FF70C7H   LINE      CODE     ---       #734
      00FF70CCH   LINE      CODE     ---       #735
      00FF70D1H   LINE      CODE     ---       #737
L251 LINKER/LOCATER V4.66.93.0                                                        06/21/2025  18:27:27  PAGE 54


      00FF70D6H   LINE      CODE     ---       #738
      00FF70DBH   LINE      CODE     ---       #739
      00FF70E0H   LINE      CODE     ---       #740
      00FF70E5H   LINE      CODE     ---       #742
      00FF70EAH   LINE      CODE     ---       #743
      00FF70EFH   LINE      CODE     ---       #744
      00FF70F4H   LINE      CODE     ---       #745
      00FF70F9H   LINE      CODE     ---       #746
      00FF70FEH   LINE      CODE     ---       #747
      00FF7103H   LINE      CODE     ---       #748
      00FF7108H   LINE      CODE     ---       #750
      00FF710DH   LINE      CODE     ---       #751
      00FF7112H   LINE      CODE     ---       #753
      00FF7117H   LINE      CODE     ---       #754
      00FF711CH   LINE      CODE     ---       #755
      00FF7121H   LINE      CODE     ---       #756
      00FF7126H   LINE      CODE     ---       #757
      00FF712BH   LINE      CODE     ---       #758
      00FF7130H   LINE      CODE     ---       #760
      00FF7135H   LINE      CODE     ---       #761
      00FF713AH   LINE      CODE     ---       #762
      00FF713EH   LINE      CODE     ---       #764
      00FF7143H   LINE      CODE     ---       #765
      00FF7148H   LINE      CODE     ---       #766
      00FF714DH   LINE      CODE     ---       #767
      00FF7152H   LINE      CODE     ---       #768
      00FF7157H   LINE      CODE     ---       #769
      00FF715CH   LINE      CODE     ---       #771
      00FF7161H   LINE      CODE     ---       #772
      00FF7166H   LINE      CODE     ---       #774
      00FF716BH   LINE      CODE     ---       #777
      00FF7170H   LINE      CODE     ---       #786
      00FF7175H   LINE      CODE     ---       #787
      00FF717AH   LINE      CODE     ---       #788
      00FF717FH   LINE      CODE     ---       #789
      00FF7184H   LINE      CODE     ---       #790
      00FF7189H   LINE      CODE     ---       #791
      00FF718EH   LINE      CODE     ---       #792
      00FF7193H   LINE      CODE     ---       #793
      00FF7198H   LINE      CODE     ---       #794
      00FF719DH   LINE      CODE     ---       #795
      00FF71A2H   LINE      CODE     ---       #796
      00FF71A7H   LINE      CODE     ---       #797
      00FF71ACH   LINE      CODE     ---       #798
      00FF71B1H   LINE      CODE     ---       #799
      00FF71B5H   LINE      CODE     ---       #800
      00FF71BAH   LINE      CODE     ---       #801
      00FF71BFH   LINE      CODE     ---       #802
      00FF71C4H   LINE      CODE     ---       #804
      00FF71C9H   LINE      CODE     ---       #805
      00FF71CEH   LINE      CODE     ---       #806
      00FF71D3H   LINE      CODE     ---       #807
      00FF71D8H   LINE      CODE     ---       #808
      00FF71DDH   LINE      CODE     ---       #809
      00FF71E2H   LINE      CODE     ---       #810
      00FF71E7H   LINE      CODE     ---       #811
      00FF71ECH   LINE      CODE     ---       #812
      00FF71F1H   LINE      CODE     ---       #813
      00FF71F6H   LINE      CODE     ---       #814
      00FF71FBH   LINE      CODE     ---       #815
      00FF7200H   LINE      CODE     ---       #816
      00FF7205H   LINE      CODE     ---       #817
      00FF7209H   LINE      CODE     ---       #818
      00FF720EH   LINE      CODE     ---       #819
      00FF7213H   LINE      CODE     ---       #820
L251 LINKER/LOCATER V4.66.93.0                                                        06/21/2025  18:27:27  PAGE 55


      00FF7218H   LINE      CODE     ---       #822
      00FF721DH   LINE      CODE     ---       #823
      00FF7221H   LINE      CODE     ---       #824
      00FF7226H   LINE      CODE     ---       #825
      00FF722AH   LINE      CODE     ---       #826
      00FF722FH   LINE      CODE     ---       #828
      00FF7234H   LINE      CODE     ---       #829
      00FF7238H   LINE      CODE     ---       #830
      00FF723DH   LINE      CODE     ---       #831
      00FF7241H   LINE      CODE     ---       #832
      00FF7246H   LINE      CODE     ---       #834
      00FF724BH   LINE      CODE     ---       #835
      00FF7250H   LINE      CODE     ---       #836
      00FF7255H   LINE      CODE     ---       #837
      00FF7259H   LINE      CODE     ---       #839
      00FF725EH   LINE      CODE     ---       #840
      00FF7263H   LINE      CODE     ---       #841
      00FF7268H   LINE      CODE     ---       #843
      00FF726FH   LINE      CODE     ---       #844
      ---         BLOCKEND  ---      ---       LVL=0
      00000E0DH   SYMBOL    EDATA    WORD      x
      00000E0FH   SYMBOL    EDATA    WORD      y
      00000E11H   SYMBOL    EDATA    WORD      color

      00FF8027H   BLOCK     CODE     ---       LVL=0
      00000E13H   SYMBOL    EDATA    WORD      x
      00000E15H   SYMBOL    EDATA    WORD      y
      00000E17H   SYMBOL    EDATA    CHAR      dat
      00FF8033H   BLOCK     CODE     NEAR LAB  LVL=1
      0001020BH   SYMBOL    XDATA    BYTE      i
      00000E18H   SYMBOL    EDATA    BYTE      j
      0001020CH   SYMBOL    XDATA    BYTE      temp
      ---         BLOCKEND  ---      ---       LVL=1
      00FF8027H   LINE      CODE     ---       #872
      00FF8033H   LINE      CODE     ---       #873
      00FF8033H   LINE      CODE     ---       #877
      00FF803BH   LINE      CODE     ---       #879
      00FF8064H   LINE      CODE     ---       #880
      00FF808CH   LINE      CODE     ---       #881
      00FF8093H   LINE      CODE     ---       #883
      00FF80A3H   LINE      CODE     ---       #884
      00FF80AAH   LINE      CODE     ---       #885
      00FF80B1H   LINE      CODE     ---       #886
      00FF80C8H   LINE      CODE     ---       #887
      00FF80E2H   LINE      CODE     ---       #888
      ---         BLOCKEND  ---      ---       LVL=0

      00FF8A75H   BLOCK     CODE     ---       LVL=0
      00000DA0H   SYMBOL    EDATA    WORD      x
      00000DA2H   SYMBOL    EDATA    WORD      y
      00000DA4H   SYMBOL    EDATA    ---       dat
      00FF8A81H   BLOCK     CODE     NEAR LAB  LVL=1
      0001020DH   SYMBOL    XDATA    WORD      j
      ---         BLOCKEND  ---      ---       LVL=1
      00FF8A75H   LINE      CODE     ---       #899
      00FF8A81H   LINE      CODE     ---       #900
      00FF8A81H   LINE      CODE     ---       #903
      00FF8A89H   LINE      CODE     ---       #904
      00FF8A8BH   LINE      CODE     ---       #906
      00FF8ABBH   LINE      CODE     ---       #907
      00FF8ACAH   LINE      CODE     ---       #908
      00FF8ADEH   LINE      CODE     ---       #909
      ---         BLOCKEND  ---      ---       LVL=0
      00000E4CH   SYMBOL    EDATA    WORD      x
      00000E4EH   SYMBOL    EDATA    WORD      y
L251 LINKER/LOCATER V4.66.93.0                                                        06/21/2025  18:27:27  PAGE 56


      00000E50H   SYMBOL    EDATA    CHAR      dat
      000101F6H   SYMBOL    XDATA    ---       a
      000101F9H   SYMBOL    XDATA    BYTE      i
      00000E51H   SYMBOL    EDATA    WORD      x
      00000E53H   SYMBOL    EDATA    WORD      y
      00000E55H   SYMBOL    EDATA    BYTE      dat
      000101FAH   SYMBOL    XDATA    ---       a
      000101FDH   SYMBOL    XDATA    BYTE      i
      00000E19H   SYMBOL    EDATA    WORD      x
      00000E1BH   SYMBOL    EDATA    WORD      y
      00000E1DH   SYMBOL    EDATA    INT       dat
      000101E2H   SYMBOL    XDATA    ---       a
      000101E7H   SYMBOL    XDATA    BYTE      i

      00FF7DC8H   BLOCK     CODE     ---       LVL=0
      00000E1FH   SYMBOL    EDATA    WORD      x
      00000E21H   SYMBOL    EDATA    WORD      y
      00000E23H   SYMBOL    EDATA    WORD      dat
      00FF7DD4H   BLOCK     CODE     NEAR LAB  LVL=1
      000101E8H   SYMBOL    XDATA    ---       a
      000101EDH   SYMBOL    XDATA    BYTE      i
      ---         BLOCKEND  ---      ---       LVL=1
      00FF7DC8H   LINE      CODE     ---       #1011
      00FF7DD4H   LINE      CODE     ---       #1012
      00FF7DD4H   LINE      CODE     ---       #1016
      00FF7DE2H   LINE      CODE     ---       #1017
      00FF7DF8H   LINE      CODE     ---       #1018
      00FF7E0EH   LINE      CODE     ---       #1019
      00FF7E24H   LINE      CODE     ---       #1020
      00FF7E34H   LINE      CODE     ---       #1022
      00FF7E39H   LINE      CODE     ---       #1023
      00FF7E3BH   LINE      CODE     ---       #1025
      00FF7E81H   LINE      CODE     ---       #1026
      00FF7E8CH   LINE      CODE     ---       #1027
      00FF7E98H   LINE      CODE     ---       #1028
      ---         BLOCKEND  ---      ---       LVL=0
      00000D27H   SYMBOL    EDATA    WORD      x
      00000D29H   SYMBOL    EDATA    WORD      y
      00000D2BH   SYMBOL    EDATA    LONG      dat
      00000D2FH   SYMBOL    EDATA    BYTE      num
      000101A5H   SYMBOL    XDATA    ---       buff
      000101C7H   SYMBOL    XDATA    BYTE      length

      00FF75E2H   BLOCK     CODE     ---       LVL=0
      00000C4AH   SYMBOL    EDATA    WORD      x
      00000C4CH   SYMBOL    EDATA    WORD      y
      00000C4EH   SYMBOL    EDATA    FLOAT     dat
      00000C52H   SYMBOL    EDATA    BYTE      num
      00000C53H   SYMBOL    EDATA    BYTE      pointnum
      00FF75F2H   BLOCK     CODE     NEAR LAB  LVL=1
      0001015EH   SYMBOL    XDATA    BYTE      length
      0001015FH   SYMBOL    XDATA    ---       buff
      00010181H   SYMBOL    XDATA    CHAR      start
      00000C54H   SYMBOL    EDATA    CHAR      end
      00000C55H   SYMBOL    EDATA    CHAR      point
      ---         BLOCKEND  ---      ---       LVL=1
      00FF75E2H   LINE      CODE     ---       #1082
      00FF75F2H   LINE      CODE     ---       #1083
      00FF75F2H   LINE      CODE     ---       #1088
      00FF7602H   LINE      CODE     ---       #1089
      00FF7612H   LINE      CODE     ---       #1091
      00FF7640H   LINE      CODE     ---       #1094
      00FF7661H   LINE      CODE     ---       #1095
      00FF766CH   LINE      CODE     ---       #1096
      00FF766CH   LINE      CODE     ---       #1097
L251 LINKER/LOCATER V4.66.93.0                                                        06/21/2025  18:27:27  PAGE 57


      00FF767CH   LINE      CODE     ---       #1098
      00FF7694H   LINE      CODE     ---       #1099
      00FF76ACH   LINE      CODE     ---       #1100
      00FF76AEH   LINE      CODE     ---       #1102
      00FF76C3H   LINE      CODE     ---       #1103
      00FF76D0H   LINE      CODE     ---       #1104
      00FF76DBH   LINE      CODE     ---       #1105
      00FF76E6H   LINE      CODE     ---       #1107
      00FF770BH   LINE      CODE     ---       #1108
      00FF7723H   LINE      CODE     ---       #1110
      00FF7737H   LINE      CODE     ---       #1112
      00FF774AH   LINE      CODE     ---       #1113
      ---         BLOCKEND  ---      ---       LVL=0
      00000C56H   SYMBOL    EDATA    ---       p
      00000C5AH   SYMBOL    EDATA    INT       i
      00000C5CH   SYMBOL    EDATA    INT       j
      00000C5EH   SYMBOL    EDATA    INT       k
      00000C60H   SYMBOL    EDATA    BYTE      picH
      00000C61H   SYMBOL    EDATA    BYTE      picL

      00FF787BH   BLOCK     CODE     ---       LVL=0
      00000B3AH   SYMBOL    EDATA    WORD      x
      00000B3CH   SYMBOL    EDATA    WORD      y
      00000B3EH   SYMBOL    EDATA    BYTE      width
      00000B3FH   SYMBOL    EDATA    BYTE      height
      00000B40H   SYMBOL    EDATA    ---       font_data
      00000B44H   SYMBOL    EDATA    WORD      font_color
      00000B46H   SYMBOL    EDATA    WORD      bg_color
      00FF788FH   BLOCK     CODE     NEAR LAB  LVL=1
      00000B48H   SYMBOL    EDATA    BYTE      i
      00000B49H   SYMBOL    EDATA    BYTE      j
      00000B4AH   SYMBOL    EDATA    BYTE      k
      00000B4BH   SYMBOL    EDATA    BYTE      byte_data
      00000B4CH   SYMBOL    EDATA    WORD      bytes_per_row
      ---         BLOCKEND  ---      ---       LVL=1
      00FF787BH   LINE      CODE     ---       #1157
      00FF788FH   LINE      CODE     ---       #1158
      00FF788FH   LINE      CODE     ---       #1165
      00FF78A6H   LINE      CODE     ---       #1168
      00FF78AEH   LINE      CODE     ---       #1171
      00FF78DFH   LINE      CODE     ---       #1174
      00FF78E7H   LINE      CODE     ---       #1177
      00FF7908H   LINE      CODE     ---       #1180
      00FF790FH   LINE      CODE     ---       #1183
      00FF792AH   LINE      CODE     ---       #1186
      00FF7931H   LINE      CODE     ---       #1188
      00FF7938H   LINE      CODE     ---       #1189
      00FF793AH   LINE      CODE     ---       #1192
      00FF7941H   LINE      CODE     ---       #1193
      00FF7941H   LINE      CODE     ---       #1194
      00FF7941H   LINE      CODE     ---       #1195
      00FF794BH   LINE      CODE     ---       #1196
      00FF7962H   LINE      CODE     ---       #1197
      00FF7980H   LINE      CODE     ---       #1198
      00FF799CH   LINE      CODE     ---       #1199
      ---         BLOCKEND  ---      ---       LVL=0

      ---         MODULE    ---      ---       SEEKFREE_FONT
      00FF9AA1H   PUBLIC    HCONST   ---       Mian_32x32
      00FF9B21H   PUBLIC    HCONST   ---       Tang_32x32
      00FF9BA1H   PUBLIC    HCONST   ---       Hua_32x32
      00FF9C21H   PUBLIC    HCONST   ---       Wei_32x32
      00FF33FDH   PUBLIC    CODE     ---       tft_ascii
      00FF39EDH   PUBLIC    CODE     ---       oled_6x8
      000000D0H   SFRSYM    DATA     BYTE      PSW
L251 LINKER/LOCATER V4.66.93.0                                                        06/21/2025  18:27:27  PAGE 58


      0000009DH   SFRSYM    DATA     BYTE      IRCBAND
      00000097H   SFRSYM    DATA     BYTE      AUXR2
      000000EFH   SFRSYM    DATA     BYTE      AUXINTIF
      000000FDH   SFRSYM    DATA     BYTE      S4CON
      000000ACH   SFRSYM    DATA     BYTE      S3CON
      0000009AH   SFRSYM    DATA     BYTE      S2CON
      000000B7H   SFRSYM    DATA     BYTE      IPH
      000000CDH   SFRSYM    DATA     BYTE      SPSTAT
      000000DDH   SFRSYM    DATA     BYTE      T4T3M
      000000C1H   SFRSYM    DATA     BYTE      WDT_CONTR
      000000DFH   SFRSYM    DATA     BYTE      IP3
      000000F4H   SFRSYM    DATA     BYTE      USBCON
      000000B5H   SFRSYM    DATA     BYTE      IP2
      000000FFH   SFRSYM    DATA     BYTE      RSTCFG
      000000F9H   SFRSYM    DATA     BYTE      LINICR
      0000008EH   SFRSYM    DATA     BYTE      AUXR
      000000AFH   SFRSYM    DATA     BYTE      IE2
      00000088H   SFRSYM    DATA     BYTE      TCON
      00000098H   SFRSYM    DATA     BYTE      SCON
      000000F1H   SFRSYM    DATA     BYTE      CANICR
      00000087H   SFRSYM    DATA     BYTE      PCON
      000000BCH   SFRSYM    DATA     BYTE      ADC_CONTR
      000000E7H   SFRSYM    DATA     BYTE      CMPCR2
      000000E6H   SFRSYM    DATA     BYTE      CMPCR1
      000000B8H   SFRSYM    DATA     BYTE      IP
      0000008FH   SFRSYM    DATA     BYTE      INTCLKO
      000000EEH   SFRSYM    DATA     BYTE      IP3H
      000000B6H   SFRSYM    DATA     BYTE      IP2H
      000000A8H   SFRSYM    DATA     BYTE      IE
      000000BBH   SFRSYM    DATA     BYTE      P_SW3
      000000BAH   SFRSYM    DATA     BYTE      P_SW2
      000000A2H   SFRSYM    DATA     BYTE      P_SW1
      000000CEH   SFRSYM    DATA     BYTE      SPCTL
      000000F8H   SFRSYM    DATA     BYTE      P7
      000000E8H   SFRSYM    DATA     BYTE      P6
      000000C8H   SFRSYM    DATA     BYTE      P5
      000000C0H   SFRSYM    DATA     BYTE      P4
      000000B0H   SFRSYM    DATA     BYTE      P3
      000000A0H   SFRSYM    DATA     BYTE      P2
      00000090H   SFRSYM    DATA     BYTE      P1
      00000080H   SFRSYM    DATA     BYTE      P0

      ---         MODULE    ---      ---       SEEKFREE_IMU660RA
      00FF8D59H   PUBLIC    CODE     ---       imu660ra_get_gyro
      00FF83AFH   PUBLIC    CODE     ---       imu660ra_gyro_transition
      00FF8301H   PUBLIC    CODE     ---       imu660ra_init
      00000C62H   PUBLIC    EDATA    INT       imu660ra_acc_x
      00000C64H   PUBLIC    EDATA    INT       imu660ra_acc_y
      00000C66H   PUBLIC    EDATA    INT       imu660ra_acc_z
      00000C68H   PUBLIC    EDATA    INT       imu660ra_gyro_x
      00000C6AH   PUBLIC    EDATA    INT       imu660ra_gyro_y
      00000C6CH   PUBLIC    EDATA    INT       imu660ra_gyro_z
      000000D0H   SFRSYM    DATA     BYTE      PSW
      0000009DH   SFRSYM    DATA     BYTE      IRCBAND
      00000097H   SFRSYM    DATA     BYTE      AUXR2
      000000EFH   SFRSYM    DATA     BYTE      AUXINTIF
      000000FDH   SFRSYM    DATA     BYTE      S4CON
      000000ACH   SFRSYM    DATA     BYTE      S3CON
      0000009AH   SFRSYM    DATA     BYTE      S2CON
      000000B7H   SFRSYM    DATA     BYTE      IPH
      000000CDH   SFRSYM    DATA     BYTE      SPSTAT
      000000DDH   SFRSYM    DATA     BYTE      T4T3M
      000000C1H   SFRSYM    DATA     BYTE      WDT_CONTR
      000000DFH   SFRSYM    DATA     BYTE      IP3
      000000F4H   SFRSYM    DATA     BYTE      USBCON
L251 LINKER/LOCATER V4.66.93.0                                                        06/21/2025  18:27:27  PAGE 59


      000000B5H   SFRSYM    DATA     BYTE      IP2
      000000FFH   SFRSYM    DATA     BYTE      RSTCFG
      000000F9H   SFRSYM    DATA     BYTE      LINICR
      0000008EH   SFRSYM    DATA     BYTE      AUXR
      000000AFH   SFRSYM    DATA     BYTE      IE2
      000000C0H.3 SFRSYM    DATA     BIT       P43
      000000C0H.2 SFRSYM    DATA     BIT       P42
      00000088H   SFRSYM    DATA     BYTE      TCON
      000000C0H.1 SFRSYM    DATA     BIT       P41
      00000098H   SFRSYM    DATA     BYTE      SCON
      000000C0H.0 SFRSYM    DATA     BIT       P40
      000000F1H   SFRSYM    DATA     BYTE      CANICR
      00000087H   SFRSYM    DATA     BYTE      PCON
      000000BCH   SFRSYM    DATA     BYTE      ADC_CONTR
      000000E7H   SFRSYM    DATA     BYTE      CMPCR2
      000000E6H   SFRSYM    DATA     BYTE      CMPCR1
      000000B8H   SFRSYM    DATA     BYTE      IP
      0000008FH   SFRSYM    DATA     BYTE      INTCLKO
      000000EEH   SFRSYM    DATA     BYTE      IP3H
      000000B6H   SFRSYM    DATA     BYTE      IP2H
      000000A8H   SFRSYM    DATA     BYTE      IE
      000000BBH   SFRSYM    DATA     BYTE      P_SW3
      000000BAH   SFRSYM    DATA     BYTE      P_SW2
      000000A2H   SFRSYM    DATA     BYTE      P_SW1
      000000CEH   SFRSYM    DATA     BYTE      SPCTL
      000000F8H   SFRSYM    DATA     BYTE      P7
      000000E8H   SFRSYM    DATA     BYTE      P6
      000000C8H   SFRSYM    DATA     BYTE      P5
      000000C0H   SFRSYM    DATA     BYTE      P4
      000000B0H   SFRSYM    DATA     BYTE      P3
      000000A0H   SFRSYM    DATA     BYTE      P2
      00000090H   SFRSYM    DATA     BYTE      P1
      00000080H   SFRSYM    DATA     BYTE      P0
      00FF90F4H   SYMBOL    CODE     ---       imu660ra_read_register
      00FF9140H   SYMBOL    CODE     ---       imu660ra_write_registers
      00FF919CH   SYMBOL    CODE     ---       imu660ra_write_register
      00FF8BFFH   SYMBOL    CODE     ---       imu660ra_simspi_wr_byte
      00FF8E50H   SYMBOL    CODE     ---       imu660ra_self_check
      00FF8E9EH   SYMBOL    CODE     ---       imu660ra_simspi_r_reg_bytes
      00FF8FF9H   SYMBOL    CODE     ---       imu660ra_simspi_w_reg_bytes
      00FF9181H   SYMBOL    CODE     ---       imu660ra_simspi_w_reg_byte
      00FF911AH   SYMBOL    CODE     ---       imu660ra_read_registers

      00FF8BFFH   BLOCK     CODE     ---       LVL=0
      00000EB6H   SYMBOL    EDATA    BYTE      byte
      00FF8C03H   BLOCK     CODE     NEAR LAB  LVL=1
      00010216H   SYMBOL    XDATA    BYTE      i
      ---         BLOCKEND  ---      ---       LVL=1
      00FF8BFFH   LINE      CODE     ---       #294
      00FF8C03H   LINE      CODE     ---       #295
      00FF8C03H   LINE      CODE     ---       #297
      00FF8C0AH   LINE      CODE     ---       #299
      00FF8C18H   LINE      CODE     ---       #300
      00FF8C22H   LINE      CODE     ---       #301
      00FF8C25H   LINE      CODE     ---       #302
      00FF8C28H   LINE      CODE     ---       #303
      00FF8C2BH   LINE      CODE     ---       #304
      00FF8C2EH   LINE      CODE     ---       #305
      00FF8C3CH   LINE      CODE     ---       #306
      00FF8C53H   LINE      CODE     ---       #307
      00FF8C57H   LINE      CODE     ---       #308
      ---         BLOCKEND  ---      ---       LVL=0

      00FF9181H   BLOCK     CODE     ---       LVL=0
      00000EA2H   SYMBOL    EDATA    BYTE      cmd
L251 LINKER/LOCATER V4.66.93.0                                                        06/21/2025  18:27:27  PAGE 60


      00000EA3H   SYMBOL    EDATA    BYTE      val
      00FF9181H   LINE      CODE     ---       #316
      00FF9189H   LINE      CODE     ---       #318
      00FF918DH   LINE      CODE     ---       #319
      00FF9194H   LINE      CODE     ---       #320
      00FF919BH   LINE      CODE     ---       #321
      ---         BLOCKEND  ---      ---       LVL=0

      00FF8FF9H   BLOCK     CODE     ---       LVL=0
      00000D30H   SYMBOL    EDATA    BYTE      cmd
      00000D31H   SYMBOL    EDATA    ---       dat_addr
      00000D35H   SYMBOL    EDATA    DWORD     len
      00FF8FF9H   LINE      CODE     ---       #331
      00FF9005H   LINE      CODE     ---       #333
      00FF9009H   LINE      CODE     ---       #334
      00FF9010H   LINE      CODE     ---       #335
      00FF9012H   LINE      CODE     ---       #337
      00FF9022H   LINE      CODE     ---       #338
      00FF9036H   LINE      CODE     ---       #339
      ---         BLOCKEND  ---      ---       LVL=0

      00FF8E9EH   BLOCK     CODE     ---       LVL=0
      00000D39H   SYMBOL    EDATA    BYTE      cmd
      00000D3AH   SYMBOL    EDATA    ---       val
      00000D3EH   SYMBOL    EDATA    DWORD     num
      00FF8E9EH   LINE      CODE     ---       #365
      00FF8EAAH   LINE      CODE     ---       #367
      00FF8EB6H   LINE      CODE     ---       #368
      00FF8EBDH   LINE      CODE     ---       #369
      00FF8EBFH   LINE      CODE     ---       #371
      00FF8ED4H   LINE      CODE     ---       #372
      00FF8EE8H   LINE      CODE     ---       #373
      ---         BLOCKEND  ---      ---       LVL=0

      00FF919CH   BLOCK     CODE     ---       LVL=0
      00000EA4H   SYMBOL    EDATA    BYTE      reg
      00000EA5H   SYMBOL    EDATA    BYTE      dat
      00FF919CH   LINE      CODE     ---       #384
      00FF91A4H   LINE      CODE     ---       #386
      00FF91A7H   LINE      CODE     ---       #387
      00FF91B2H   LINE      CODE     ---       #388
      00FF91B5H   LINE      CODE     ---       #389
      ---         BLOCKEND  ---      ---       LVL=0

      00FF9140H   BLOCK     CODE     ---       LVL=0
      00000D42H   SYMBOL    EDATA    BYTE      reg
      00000D43H   SYMBOL    EDATA    ---       dat
      00000D47H   SYMBOL    EDATA    DWORD     len
      00FF9140H   LINE      CODE     ---       #399
      00FF914CH   LINE      CODE     ---       #401
      00FF914FH   LINE      CODE     ---       #402
      00FF915EH   LINE      CODE     ---       #403
      00FF9161H   LINE      CODE     ---       #404
      ---         BLOCKEND  ---      ---       LVL=0

      00FF90F4H   BLOCK     CODE     ---       LVL=0
      00000EB7H   SYMBOL    EDATA    BYTE      reg
      00FF90F8H   BLOCK     CODE     NEAR LAB  LVL=1
      0001020FH   SYMBOL    XDATA    ---       dat
      ---         BLOCKEND  ---      ---       LVL=1
      00FF90F4H   LINE      CODE     ---       #413
      00FF90F8H   LINE      CODE     ---       #414
      00FF90F8H   LINE      CODE     ---       #416
      00FF90FBH   LINE      CODE     ---       #417
      00FF9112H   LINE      CODE     ---       #418
L251 LINKER/LOCATER V4.66.93.0                                                        06/21/2025  18:27:27  PAGE 61


      00FF9115H   LINE      CODE     ---       #419
      00FF9119H   LINE      CODE     ---       #420
      ---         BLOCKEND  ---      ---       LVL=0

      00FF911AH   BLOCK     CODE     ---       LVL=0
      00000D4BH   SYMBOL    EDATA    BYTE      reg
      00000D4CH   SYMBOL    EDATA    ---       dat
      00000D50H   SYMBOL    EDATA    DWORD     len
      00FF911AH   LINE      CODE     ---       #431
      00FF9126H   LINE      CODE     ---       #433
      00FF9129H   LINE      CODE     ---       #434
      00FF913CH   LINE      CODE     ---       #435
      00FF913FH   LINE      CODE     ---       #436
      ---         BLOCKEND  ---      ---       LVL=0

      00FF8E50H   BLOCK     CODE     ---       LVL=0
      00010202H   SYMBOL    XDATA    BYTE      dat
      00000EB8H   SYMBOL    EDATA    BYTE      return_state
      00010203H   SYMBOL    XDATA    WORD      timeout_count
      00FF8E50H   LINE      CODE     ---       #446
      00FF8E50H   LINE      CODE     ---       #447
      00FF8E50H   LINE      CODE     ---       #448
      00FF8E5AH   LINE      CODE     ---       #449
      00FF8E62H   LINE      CODE     ---       #450
      00FF8E62H   LINE      CODE     ---       #452
      00FF8E79H   LINE      CODE     ---       #454
      00FF8E7FH   LINE      CODE     ---       #455
      00FF8E81H   LINE      CODE     ---       #456
      00FF8E81H   LINE      CODE     ---       #457
      00FF8E89H   LINE      CODE     ---       #458
      00FF8E90H   LINE      CODE     ---       #459
      00FF8E99H   LINE      CODE     ---       #461
      00FF8E9DH   LINE      CODE     ---       #462
      ---         BLOCKEND  ---      ---       LVL=0
      000101C8H   SYMBOL    XDATA    ---       dat

      00FF8D59H   BLOCK     CODE     ---       LVL=0
      000101CFH   SYMBOL    XDATA    ---       dat
      00FF8D59H   LINE      CODE     ---       #497
      00FF8D59H   LINE      CODE     ---       #498
      00FF8D59H   LINE      CODE     ---       #508
      00FF8D6AH   LINE      CODE     ---       #509
      00FF8D80H   LINE      CODE     ---       #510
      00FF8D96H   LINE      CODE     ---       #511
      00FF8DACH   LINE      CODE     ---       #513
      ---         BLOCKEND  ---      ---       LVL=0
      00000E25H   SYMBOL    EDATA    INT       acc_value
      00000E27H   SYMBOL    EDATA    FLOAT     acc_dat

      00FF83AFH   BLOCK     CODE     ---       LVL=0
      00000E2BH   SYMBOL    EDATA    INT       gyro_value
      00FF83B3H   BLOCK     CODE     NEAR LAB  LVL=1
      00000E2DH   SYMBOL    EDATA    FLOAT     gyro_dat
      ---         BLOCKEND  ---      ---       LVL=1
      00FF83AFH   LINE      CODE     ---       #552
      00FF83B3H   LINE      CODE     ---       #553
      00FF83B3H   LINE      CODE     ---       #554
      00FF83B9H   LINE      CODE     ---       #555
      00FF83D2H   LINE      CODE     ---       #557
      00FF83D2H   LINE      CODE     ---       #558
      00FF83EAH   LINE      CODE     ---       #559
      00FF83ECH   LINE      CODE     ---       #560
      00FF83ECH   LINE      CODE     ---       #561
      00FF8404H   LINE      CODE     ---       #562
      00FF8406H   LINE      CODE     ---       #563
L251 LINKER/LOCATER V4.66.93.0                                                        06/21/2025  18:27:27  PAGE 62


      00FF8406H   LINE      CODE     ---       #564
      00FF841EH   LINE      CODE     ---       #565
      00FF8420H   LINE      CODE     ---       #566
      00FF8420H   LINE      CODE     ---       #567
      00FF8438H   LINE      CODE     ---       #568
      00FF843AH   LINE      CODE     ---       #569
      00FF843AH   LINE      CODE     ---       #570
      00FF8452H   LINE      CODE     ---       #571
      00FF8452H   LINE      CODE     ---       #572
      00FF8452H   LINE      CODE     ---       #573
      00FF8452H   LINE      CODE     ---       #574
      00FF8452H   LINE      CODE     ---       #575
      00FF8456H   LINE      CODE     ---       #576
      ---         BLOCKEND  ---      ---       LVL=0

      00FF8301H   BLOCK     CODE     ---       LVL=0
      00010217H   SYMBOL    XDATA    BYTE      return_state
      00FF8301H   LINE      CODE     ---       #585
      00FF8301H   LINE      CODE     ---       #586
      00FF8301H   LINE      CODE     ---       #587
      00FF8306H   LINE      CODE     ---       #588
      00FF830DH   LINE      CODE     ---       #590
      00FF8311H   LINE      CODE     ---       #592
      00FF8311H   LINE      CODE     ---       #594
      00FF8319H   LINE      CODE     ---       #599
      00FF8324H   LINE      CODE     ---       #600
      00FF832AH   LINE      CODE     ---       #601
      00FF832CH   LINE      CODE     ---       #602
      00FF832CH   LINE      CODE     ---       #603
      00FF8333H   LINE      CODE     ---       #604
      00FF833AH   LINE      CODE     ---       #605
      00FF8341H   LINE      CODE     ---       #606
      00FF8352H   LINE      CODE     ---       #607
      00FF835AH   LINE      CODE     ---       #608
      00FF8361H   LINE      CODE     ---       #609
      00FF836BH   LINE      CODE     ---       #616
      00FF8376H   LINE      CODE     ---       #619
      00FF837CH   LINE      CODE     ---       #621
      00FF837CH   LINE      CODE     ---       #622
      00FF8384H   LINE      CODE     ---       #623
      00FF838CH   LINE      CODE     ---       #624
      00FF8394H   LINE      CODE     ---       #626
      00FF839CH   LINE      CODE     ---       #633
      00FF83A3H   LINE      CODE     ---       #641
      00FF83AAH   LINE      CODE     ---       #642
      00FF83AAH   LINE      CODE     ---       #644
      00FF83AEH   LINE      CODE     ---       #645
      ---         BLOCKEND  ---      ---       LVL=0

      ---         MODULE    ---      ---       SEEKFREE_PRINTF
      00FF7AB5H   PUBLIC    CODE     ---       number_conversion_ascii
      00FF3C15H   PUBLIC    CODE     ---       zf_sprintf
      00FF84EEH   PUBLIC    CODE     ---       printf_reverse_order
      00000B4EH   PUBLIC    EDATA    BYTE      ?number_conversion_ascii?BYTE
      000008AEH   PUBLIC    EDATA    BYTE      ?zf_sprintf?BYTE
      000000D0H   SFRSYM    DATA     BYTE      PSW
      0000009DH   SFRSYM    DATA     BYTE      IRCBAND
      00000097H   SFRSYM    DATA     BYTE      AUXR2
      000000EFH   SFRSYM    DATA     BYTE      AUXINTIF
      000000FDH   SFRSYM    DATA     BYTE      S4CON
      000000ACH   SFRSYM    DATA     BYTE      S3CON
      0000009AH   SFRSYM    DATA     BYTE      S2CON
      000000B7H   SFRSYM    DATA     BYTE      IPH
      000000CDH   SFRSYM    DATA     BYTE      SPSTAT
      000000DDH   SFRSYM    DATA     BYTE      T4T3M
L251 LINKER/LOCATER V4.66.93.0                                                        06/21/2025  18:27:27  PAGE 63


      000000C1H   SFRSYM    DATA     BYTE      WDT_CONTR
      000000DFH   SFRSYM    DATA     BYTE      IP3
      000000F4H   SFRSYM    DATA     BYTE      USBCON
      000000B5H   SFRSYM    DATA     BYTE      IP2
      000000FFH   SFRSYM    DATA     BYTE      RSTCFG
      000000F9H   SFRSYM    DATA     BYTE      LINICR
      0000008EH   SFRSYM    DATA     BYTE      AUXR
      000000AFH   SFRSYM    DATA     BYTE      IE2
      00000088H   SFRSYM    DATA     BYTE      TCON
      00000098H   SFRSYM    DATA     BYTE      SCON
      000000F1H   SFRSYM    DATA     BYTE      CANICR
      00000087H   SFRSYM    DATA     BYTE      PCON
      000000BCH   SFRSYM    DATA     BYTE      ADC_CONTR
      000000E7H   SFRSYM    DATA     BYTE      CMPCR2
      000000E6H   SFRSYM    DATA     BYTE      CMPCR1
      000000B8H   SFRSYM    DATA     BYTE      IP
      0000008FH   SFRSYM    DATA     BYTE      INTCLKO
      000000EEH   SFRSYM    DATA     BYTE      IP3H
      000000B6H   SFRSYM    DATA     BYTE      IP2H
      000000A8H   SFRSYM    DATA     BYTE      IE
      000000BBH   SFRSYM    DATA     BYTE      P_SW3
      000000BAH   SFRSYM    DATA     BYTE      P_SW2
      000000A2H   SFRSYM    DATA     BYTE      P_SW1
      000000CEH   SFRSYM    DATA     BYTE      SPCTL
      000000F8H   SFRSYM    DATA     BYTE      P7
      000000E8H   SFRSYM    DATA     BYTE      P6
      000000C8H   SFRSYM    DATA     BYTE      P5
      000000C0H   SFRSYM    DATA     BYTE      P4
      000000B0H   SFRSYM    DATA     BYTE      P3
      000000A0H   SFRSYM    DATA     BYTE      P2
      00000090H   SFRSYM    DATA     BYTE      P1
      00000080H   SFRSYM    DATA     BYTE      P0

      00FF7AB5H   BLOCK     CODE     ---       LVL=0
      00000B4EH   SYMBOL    EDATA    DWORD     dat
      00000B52H   SYMBOL    EDATA    ---       p
      00000B56H   SYMBOL    EDATA    BYTE      neg_type
      00000B57H   SYMBOL    EDATA    BYTE      radix
      00FF7AC1H   BLOCK     CODE     NEAR LAB  LVL=1
      00000B58H   SYMBOL    EDATA    LONG      neg_dat
      00000B5CH   SYMBOL    EDATA    DWORD     pos_dat
      00000B60H   SYMBOL    EDATA    BYTE      temp_data
      00000B61H   SYMBOL    EDATA    BYTE      valid_num
      ---         BLOCKEND  ---      ---       LVL=1
      00FF7AB5H   LINE      CODE     ---       #29
      00FF7AC1H   LINE      CODE     ---       #30
      00FF7AC1H   LINE      CODE     ---       #33
      00FF7AC6H   LINE      CODE     ---       #34
      00FF7ACBH   LINE      CODE     ---       #36
      00FF7AD4H   LINE      CODE     ---       #38
      00FF7ADCH   LINE      CODE     ---       #39
      00FF7AF4H   LINE      CODE     ---       #40
      00FF7AF4H   LINE      CODE     ---       #42
      00FF7B10H   LINE      CODE     ---       #43
      00FF7B23H   LINE      CODE     ---       #44
      00FF7B30H   LINE      CODE     ---       #46
      00FF7B38H   LINE      CODE     ---       #47
      00FF7B42H   LINE      CODE     ---       #48
      00FF7B44H   LINE      CODE     ---       #49
      00FF7B47H   LINE      CODE     ---       #52
      00FF7B4FH   LINE      CODE     ---       #53
      00FF7B4FH   LINE      CODE     ---       #55
      00FF7B64H   LINE      CODE     ---       #56
      00FF7B7CH   LINE      CODE     ---       #57
      00FF7B88H   LINE      CODE     ---       #59
L251 LINKER/LOCATER V4.66.93.0                                                        06/21/2025  18:27:27  PAGE 64


      00FF7B93H   LINE      CODE     ---       #61
      00FF7BA6H   LINE      CODE     ---       #62
      00FF7BB3H   LINE      CODE     ---       #64
      00FF7BBBH   LINE      CODE     ---       #65
      00FF7BC5H   LINE      CODE     ---       #66
      00FF7BC7H   LINE      CODE     ---       #67
      00FF7BC7H   LINE      CODE     ---       #68
      00FF7BCBH   LINE      CODE     ---       #69
      ---         BLOCKEND  ---      ---       LVL=0

      00FF84EEH   BLOCK     CODE     ---       LVL=0
      00000C25H   SYMBOL    EDATA    ---       d_buff
      00000C29H   SYMBOL    EDATA    DWORD     len
      00FF84F6H   BLOCK     CODE     NEAR LAB  LVL=1
      00000C2DH   SYMBOL    EDATA    DWORD     i
      00000C31H   SYMBOL    EDATA    CHAR      temp_data
      ---         BLOCKEND  ---      ---       LVL=1
      00FF84EEH   LINE      CODE     ---       #71
      00FF84F6H   LINE      CODE     ---       #72
      00FF84F6H   LINE      CODE     ---       #75
      00FF84FEH   LINE      CODE     ---       #77
      00FF851DH   LINE      CODE     ---       #78
      00FF8547H   LINE      CODE     ---       #79
      00FF855AH   LINE      CODE     ---       #80
      00FF8582H   LINE      CODE     ---       #81
      ---         BLOCKEND  ---      ---       LVL=0

      00FF3C15H   BLOCK     CODE     ---       LVL=0
      000008AEH   SYMBOL    EDATA    ---       buff
      000008B2H   SYMBOL    EDATA    ---       format
      00FF3C1DH   BLOCK     CODE     NEAR LAB  LVL=1
      000008B6H   SYMBOL    EDATA    DWORD     buff_len
      000008BAH   SYMBOL    EDATA    ---       arg
      00FF3C32H   BLOCK     CODE     NEAR LAB  LVL=2
      000008BEH   SYMBOL    EDATA    CHAR      ret
      00FF3D67H   BLOCK     CODE     NEAR LAB  LVL=3
      000008BFH   SYMBOL    EDATA    CHAR      ch
      ---         BLOCKEND  ---      ---       LVL=3
      00FF3DA6H   BLOCK     CODE     NEAR LAB  LVL=3
      000008BFH   SYMBOL    EDATA    ---       vstr
      000008E0H   SYMBOL    EDATA    LONG      ival
      000008E4H   SYMBOL    EDATA    BYTE      vlen
      ---         BLOCKEND  ---      ---       LVL=3
      00FF3E47H   BLOCK     CODE     NEAR LAB  LVL=3
      000008BFH   SYMBOL    EDATA    ---       vstr
      000008E0H   SYMBOL    EDATA    FLOAT     ival
      000008E4H   SYMBOL    EDATA    BYTE      vlen
      ---         BLOCKEND  ---      ---       LVL=3
      00FF3FE8H   BLOCK     CODE     NEAR LAB  LVL=3
      000008BFH   SYMBOL    EDATA    ---       vstr
      000008E0H   SYMBOL    EDATA    DWORD     ival
      000008E4H   SYMBOL    EDATA    BYTE      vlen
      ---         BLOCKEND  ---      ---       LVL=3
      00FF4060H   BLOCK     CODE     NEAR LAB  LVL=3
      000008BFH   SYMBOL    EDATA    ---       vstr
      000008E0H   SYMBOL    EDATA    DWORD     ival
      000008E4H   SYMBOL    EDATA    BYTE      vlen
      ---         BLOCKEND  ---      ---       LVL=3
      00FF40D8H   BLOCK     CODE     NEAR LAB  LVL=3
      000008BFH   SYMBOL    EDATA    ---       vstr
      000008E0H   SYMBOL    EDATA    DWORD     ival
      000008E4H   SYMBOL    EDATA    BYTE      vlen
      ---         BLOCKEND  ---      ---       LVL=3
      00FF4150H   BLOCK     CODE     NEAR LAB  LVL=3
      000008BFH   SYMBOL    EDATA    ---       pc
L251 LINKER/LOCATER V4.66.93.0                                                        06/21/2025  18:27:27  PAGE 65


      ---         BLOCKEND  ---      ---       LVL=3
      00FF41AAH   BLOCK     CODE     NEAR LAB  LVL=3
      000008BFH   SYMBOL    EDATA    ---       vstr
      000008E0H   SYMBOL    EDATA    DWORD     ival
      ---         BLOCKEND  ---      ---       LVL=3
      ---         BLOCKEND  ---      ---       LVL=2
      ---         BLOCKEND  ---      ---       LVL=1
      00FF3C15H   LINE      CODE     ---       #216
      00FF3C1DH   LINE      CODE     ---       #217
      00FF3C1DH   LINE      CODE     ---       #218
      00FF3C23H   LINE      CODE     ---       #220
      00FF3C2FH   LINE      CODE     ---       #222
      00FF3C32H   LINE      CODE     ---       #223
      00FF3C32H   LINE      CODE     ---       #224
      00FF3C3DH   LINE      CODE     ---       #225
      00FF3C49H   LINE      CODE     ---       #227
      00FF3D64H   LINE      CODE     ---       #229
      00FF3D64H   LINE      CODE     ---       #233
      00FF3D67H   LINE      CODE     ---       #236
      00FF3D67H   LINE      CODE     ---       #237
      00FF3D67H   LINE      CODE     ---       #238
      00FF3D80H   LINE      CODE     ---       #239
      00FF3D8BH   LINE      CODE     ---       #240
      00FF3D95H   LINE      CODE     ---       #241
      00FF3DA3H   LINE      CODE     ---       #243
      00FF3DA6H   LINE      CODE     ---       #246
      00FF3DA6H   LINE      CODE     ---       #247
      00FF3DA6H   LINE      CODE     ---       #248
      00FF3DA6H   LINE      CODE     ---       #250
      00FF3DBFH   LINE      CODE     ---       #251
      00FF3DD6H   LINE      CODE     ---       #253
      00FF3DE0H   LINE      CODE     ---       #255
      00FF3DF1H   LINE      CODE     ---       #256
      00FF3DFEH   LINE      CODE     ---       #257
      00FF3DFEH   LINE      CODE     ---       #258
      00FF3E0DH   LINE      CODE     ---       #259
      00FF3E22H   LINE      CODE     ---       #260
      00FF3E32H   LINE      CODE     ---       #261
      00FF3E44H   LINE      CODE     ---       #264
      00FF3E47H   LINE      CODE     ---       #266
      00FF3E47H   LINE      CODE     ---       #267
      00FF3E47H   LINE      CODE     ---       #268
      00FF3E47H   LINE      CODE     ---       #270
      00FF3E60H   LINE      CODE     ---       #271
      00FF3E7AH   LINE      CODE     ---       #273
      00FF3E85H   LINE      CODE     ---       #275
      00FF3E96H   LINE      CODE     ---       #276
      00FF3EA3H   LINE      CODE     ---       #277
      00FF3EA3H   LINE      CODE     ---       #278
      00FF3EB2H   LINE      CODE     ---       #279
      00FF3EC7H   LINE      CODE     ---       #280
      00FF3ED7H   LINE      CODE     ---       #281
      00FF3EE9H   LINE      CODE     ---       #283
      00FF3F0DH   LINE      CODE     ---       #284
      00FF3F11H   LINE      CODE     ---       #286
      00FF3F2BH   LINE      CODE     ---       #287
      00FF3F2DH   LINE      CODE     ---       #290
      00FF3F51H   LINE      CODE     ---       #291
      00FF3F57H   LINE      CODE     ---       #292
      00FF3F57H   LINE      CODE     ---       #294
      00FF3F59H   LINE      CODE     ---       #296
      00FF3F6AH   LINE      CODE     ---       #297
      00FF3F77H   LINE      CODE     ---       #298
      00FF3F81H   LINE      CODE     ---       #300
      00FF3F92H   LINE      CODE     ---       #301
L251 LINKER/LOCATER V4.66.93.0                                                        06/21/2025  18:27:27  PAGE 66


      00FF3F9FH   LINE      CODE     ---       #303
      00FF3FAEH   LINE      CODE     ---       #304
      00FF3FC3H   LINE      CODE     ---       #305
      00FF3FD3H   LINE      CODE     ---       #306
      00FF3FE5H   LINE      CODE     ---       #308
      00FF3FE8H   LINE      CODE     ---       #311
      00FF3FE8H   LINE      CODE     ---       #312
      00FF3FE8H   LINE      CODE     ---       #314
      00FF4001H   LINE      CODE     ---       #315
      00FF4017H   LINE      CODE     ---       #317
      00FF4026H   LINE      CODE     ---       #318
      00FF403BH   LINE      CODE     ---       #319
      00FF404BH   LINE      CODE     ---       #320
      00FF405DH   LINE      CODE     ---       #321
      00FF4060H   LINE      CODE     ---       #323
      00FF4060H   LINE      CODE     ---       #324
      00FF4060H   LINE      CODE     ---       #326
      00FF4079H   LINE      CODE     ---       #327
      00FF408FH   LINE      CODE     ---       #329
      00FF409EH   LINE      CODE     ---       #330
      00FF40B3H   LINE      CODE     ---       #331
      00FF40C3H   LINE      CODE     ---       #332
      00FF40D5H   LINE      CODE     ---       #334
      00FF40D8H   LINE      CODE     ---       #336
      00FF40D8H   LINE      CODE     ---       #337
      00FF40D8H   LINE      CODE     ---       #338
      00FF40D8H   LINE      CODE     ---       #340
      00FF40F1H   LINE      CODE     ---       #341
      00FF4107H   LINE      CODE     ---       #343
      00FF4116H   LINE      CODE     ---       #344
      00FF412BH   LINE      CODE     ---       #345
      00FF413BH   LINE      CODE     ---       #346
      00FF414DH   LINE      CODE     ---       #347
      00FF4150H   LINE      CODE     ---       #350
      00FF4150H   LINE      CODE     ---       #351
      00FF4150H   LINE      CODE     ---       #352
      00FF4169H   LINE      CODE     ---       #353
      00FF416BH   LINE      CODE     ---       #355
      00FF4179H   LINE      CODE     ---       #356
      00FF4183H   LINE      CODE     ---       #357
      00FF4191H   LINE      CODE     ---       #358
      00FF419BH   LINE      CODE     ---       #359
      00FF41A7H   LINE      CODE     ---       #360
      00FF41AAH   LINE      CODE     ---       #362
      00FF41AAH   LINE      CODE     ---       #363
      00FF41AAH   LINE      CODE     ---       #365
      00FF41C3H   LINE      CODE     ---       #367
      00FF41D5H   LINE      CODE     ---       #369
      00FF41E0H   LINE      CODE     ---       #370
      00FF41F3H   LINE      CODE     ---       #371
      00FF41FFH   LINE      CODE     ---       #372
      00FF420DH   LINE      CODE     ---       #374
      00FF420FH   LINE      CODE     ---       #377
      00FF420FH   LINE      CODE     ---       #379
      00FF4218H   LINE      CODE     ---       #380
      00FF4222H   LINE      CODE     ---       #381
      00FF4230H   LINE      CODE     ---       #382
      00FF4232H   LINE      CODE     ---       #384
      00FF4232H   LINE      CODE     ---       #385
      00FF4232H   LINE      CODE     ---       #386
      00FF4232H   LINE      CODE     ---       #389
      00FF4240H   LINE      CODE     ---       #390
      00FF424AH   LINE      CODE     ---       #391
      00FF4258H   LINE      CODE     ---       #392
      00FF4258H   LINE      CODE     ---       #393
L251 LINKER/LOCATER V4.66.93.0                                                        06/21/2025  18:27:27  PAGE 67


      00FF4262H   LINE      CODE     ---       #394
      00FF4271H   LINE      CODE     ---       #397
      00FF4275H   LINE      CODE     ---       #398
      ---         BLOCKEND  ---      ---       LVL=0

      ---         MODULE    ---      ---       SEEKFREE_VIRSCO
      00000CF6H   PUBLIC    EDATA    ---       virtual_scope_data
      00000BEEH   PUBLIC    EDATA    BYTE      ?data_conversion?BYTE
      000000D0H   SFRSYM    DATA     BYTE      PSW
      0000009DH   SFRSYM    DATA     BYTE      IRCBAND
      00000097H   SFRSYM    DATA     BYTE      AUXR2
      000000EFH   SFRSYM    DATA     BYTE      AUXINTIF
      000000FDH   SFRSYM    DATA     BYTE      S4CON
      000000ACH   SFRSYM    DATA     BYTE      S3CON
      0000009AH   SFRSYM    DATA     BYTE      S2CON
      000000B7H   SFRSYM    DATA     BYTE      IPH
      000000CDH   SFRSYM    DATA     BYTE      SPSTAT
      000000DDH   SFRSYM    DATA     BYTE      T4T3M
      000000C1H   SFRSYM    DATA     BYTE      WDT_CONTR
      000000DFH   SFRSYM    DATA     BYTE      IP3
      000000F4H   SFRSYM    DATA     BYTE      USBCON
      000000B5H   SFRSYM    DATA     BYTE      IP2
      000000FFH   SFRSYM    DATA     BYTE      RSTCFG
      000000F9H   SFRSYM    DATA     BYTE      LINICR
      0000008EH   SFRSYM    DATA     BYTE      AUXR
      000000AFH   SFRSYM    DATA     BYTE      IE2
      00000088H   SFRSYM    DATA     BYTE      TCON
      00000098H   SFRSYM    DATA     BYTE      SCON
      000000F1H   SFRSYM    DATA     BYTE      CANICR
      00000087H   SFRSYM    DATA     BYTE      PCON
      000000BCH   SFRSYM    DATA     BYTE      ADC_CONTR
      000000E7H   SFRSYM    DATA     BYTE      CMPCR2
      000000E6H   SFRSYM    DATA     BYTE      CMPCR1
      000000B8H   SFRSYM    DATA     BYTE      IP
      0000008FH   SFRSYM    DATA     BYTE      INTCLKO
      000000EEH   SFRSYM    DATA     BYTE      IP3H
      000000B6H   SFRSYM    DATA     BYTE      IP2H
      000000A8H   SFRSYM    DATA     BYTE      IE
      000000BBH   SFRSYM    DATA     BYTE      P_SW3
      000000BAH   SFRSYM    DATA     BYTE      P_SW2
      000000A2H   SFRSYM    DATA     BYTE      P_SW1
      000000CEH   SFRSYM    DATA     BYTE      SPCTL
      000000F8H   SFRSYM    DATA     BYTE      P7
      000000E8H   SFRSYM    DATA     BYTE      P6
      000000C8H   SFRSYM    DATA     BYTE      P5
      000000C0H   SFRSYM    DATA     BYTE      P4
      000000B0H   SFRSYM    DATA     BYTE      P3
      000000A0H   SFRSYM    DATA     BYTE      P2
      00000090H   SFRSYM    DATA     BYTE      P1
      00000080H   SFRSYM    DATA     BYTE      P0
      00000D54H   SYMBOL    EDATA    ---       Buf
      00000D58H   SYMBOL    EDATA    BYTE      CRC_CNT
      00000D59H   SYMBOL    EDATA    WORD      CRC_Temp
      00000D5BH   SYMBOL    EDATA    BYTE      i
      00000D5CH   SYMBOL    EDATA    BYTE      j
      00000BEEH   SYMBOL    EDATA    INT       data1
      00000BF0H   SYMBOL    EDATA    INT       data2
      00000BF2H   SYMBOL    EDATA    INT       data3
      00000BF4H   SYMBOL    EDATA    INT       data4
      00000BF6H   SYMBOL    EDATA    ---       dat
      00000BFAH   SYMBOL    EDATA    WORD      CRC16

      ---         MODULE    ---      ---       SEEKFREE_WIRELESS
      00FF0026H   PUBLIC    CODE     ---       wireless_uart_callback
      00FF8DADH   PUBLIC    CODE     ---       wireless_uart_init
L251 LINKER/LOCATER V4.66.93.0                                                        06/21/2025  18:27:27  PAGE 68


      000000D0H   SFRSYM    DATA     BYTE      PSW
      0000009DH   SFRSYM    DATA     BYTE      IRCBAND
      00000097H   SFRSYM    DATA     BYTE      AUXR2
      000000EFH   SFRSYM    DATA     BYTE      AUXINTIF
      000000FDH   SFRSYM    DATA     BYTE      S4CON
      000000ACH   SFRSYM    DATA     BYTE      S3CON
      0000009AH   SFRSYM    DATA     BYTE      S2CON
      000000B7H   SFRSYM    DATA     BYTE      IPH
      000000CDH   SFRSYM    DATA     BYTE      SPSTAT
      000000DDH   SFRSYM    DATA     BYTE      T4T3M
      000000C1H   SFRSYM    DATA     BYTE      WDT_CONTR
      000000DFH   SFRSYM    DATA     BYTE      IP3
      000000F4H   SFRSYM    DATA     BYTE      USBCON
      000000B5H   SFRSYM    DATA     BYTE      IP2
      000000FFH   SFRSYM    DATA     BYTE      RSTCFG
      000000F9H   SFRSYM    DATA     BYTE      LINICR
      0000008EH   SFRSYM    DATA     BYTE      AUXR
      000000AFH   SFRSYM    DATA     BYTE      IE2
      00000080H.7 SFRSYM    DATA     BIT       P07
      00000088H   SFRSYM    DATA     BYTE      TCON
      00000098H   SFRSYM    DATA     BYTE      SCON
      000000F1H   SFRSYM    DATA     BYTE      CANICR
      00000087H   SFRSYM    DATA     BYTE      PCON
      000000BCH   SFRSYM    DATA     BYTE      ADC_CONTR
      000000E7H   SFRSYM    DATA     BYTE      CMPCR2
      000000E6H   SFRSYM    DATA     BYTE      CMPCR1
      000000B8H   SFRSYM    DATA     BYTE      IP
      0000008FH   SFRSYM    DATA     BYTE      INTCLKO
      000000EEH   SFRSYM    DATA     BYTE      IP3H
      000000B6H   SFRSYM    DATA     BYTE      IP2H
      000000A8H   SFRSYM    DATA     BYTE      IE
      000000BBH   SFRSYM    DATA     BYTE      P_SW3
      000000BAH   SFRSYM    DATA     BYTE      P_SW2
      000000A2H   SFRSYM    DATA     BYTE      P_SW1
      000000CEH   SFRSYM    DATA     BYTE      SPCTL
      000000F8H   SFRSYM    DATA     BYTE      P7
      000000E8H   SFRSYM    DATA     BYTE      P6
      000000C8H   SFRSYM    DATA     BYTE      P5
      000000C0H   SFRSYM    DATA     BYTE      P4
      000000B0H   SFRSYM    DATA     BYTE      P3
      000000A0H   SFRSYM    DATA     BYTE      P2
      00000090H   SFRSYM    DATA     BYTE      P1
      00000080H   SFRSYM    DATA     BYTE      P0
      000100E3H   SYMBOL    XDATA    ---       wireless_uart_fifo
      000100FAH   SYMBOL    XDATA    ---       wireless_uart_buffer

      00FF0026H   BLOCK     CODE     ---       LVL=0
      00000EB9H   SYMBOL    EDATA    BYTE      dat
      00FF0026H   LINE      CODE     ---       #46
      00FF002AH   LINE      CODE     ---       #49
      00FF0041H   LINE      CODE     ---       #50
      ---         BLOCKEND  ---      ---       LVL=0
      00000EBAH   SYMBOL    EDATA    BYTE      dat
      00000DA8H   SYMBOL    EDATA    ---       buff
      00000DACH   SYMBOL    EDATA    DWORD     len
      00000DB0H   SYMBOL    EDATA    ---       buff
      00000DB4H   SYMBOL    EDATA    DWORD     len
      000101FEH   SYMBOL    XDATA    DWORD     data_len

      00FF8DADH   BLOCK     CODE     ---       LVL=0
      00FF8DADH   LINE      CODE     ---       #132
      00FF8DADH   LINE      CODE     ---       #134
      00FF8DB0H   LINE      CODE     ---       #135
      00FF8DB8H   LINE      CODE     ---       #136
      00FF8DC0H   LINE      CODE     ---       #138
L251 LINKER/LOCATER V4.66.93.0                                                        06/21/2025  18:27:27  PAGE 69


      00FF8DE1H   LINE      CODE     ---       #139
      00FF8E00H   LINE      CODE     ---       #141
      ---         BLOCKEND  ---      ---       LVL=0

      ---         MODULE    ---      ---       isr
      00FF8F76H   PUBLIC    CODE     ---       UART1_Isr
      00FF91B6H   PUBLIC    CODE     ---       UART2_Isr
      00FF91D0H   PUBLIC    CODE     ---       UART3_Isr
      00FF8583H   PUBLIC    CODE     ---       UART4_Isr
      00FF000EH   PUBLIC    CODE     ---       INT0_Isr
      00FF000AH   PUBLIC    CODE     ---       INT1_Isr
      00FF0016H   PUBLIC    CODE     ---       INT2_Isr
      00FF001EH   PUBLIC    CODE     ---       INT3_Isr
      00FF0046H   PUBLIC    CODE     ---       INT4_Isr
      00FF0012H   PUBLIC    CODE     ---       TM0_Isr
      00FF58CDH   PUBLIC    CODE     ---       TM1_Isr
      00FF61F8H   PUBLIC    CODE     ---       TM4_Isr
      000006BCH   PUBLIC    EDATA    FLOAT     current_r_pwm_duty_ang_turn
      000006C0H   PUBLIC    EDATA    FLOAT     encoder_straight_element
      000006C4H   PUBLIC    EDATA    CHAR      ring_out_sign
      000006C5H   PUBLIC    EDATA    FLOAT     gyro_roll_sign_cross
      000006C9H   PUBLIC    EDATA    FLOAT     err_X
      000006CDH   PUBLIC    EDATA    FLOAT     encoder_charge_element
      000006D1H   PUBLIC    EDATA    FLOAT     dir_enlarge
      000006D5H   PUBLIC    EDATA    CHAR      encoder_cross_sign
      000006D6H   PUBLIC    EDATA    FLOAT     gyro_roll_sign_rign
      000006DAH   PUBLIC    EDATA    FLOAT     encoder_speedup_element
      000006DEH   PUBLIC    EDATA    FLOAT     err_t
      000006E2H   PUBLIC    EDATA    CHAR      time_speedup_sign
      000006E3H   PUBLIC    EDATA    ---       right_stall
      000006E6H   PUBLIC    EDATA    FLOAT     current_l_pwm_inc
      000006EAH   PUBLIC    EDATA    FLOAT     current_r_pwm_inc
      000006EEH   PUBLIC    EDATA    FLOAT     error
      000006F2H   PUBLIC    EDATA    ---       left_stall
      000006F5H   PUBLIC    EDATA    FLOAT     current_l_pwm_duty
      000006F9H   PUBLIC    EDATA    FLOAT     current_r_pwm_duty
      000006FDH   PUBLIC    EDATA    FLOAT     ring_out_element
      00000701H   PUBLIC    EDATA    FLOAT     mot_inc_element
      00000705H   PUBLIC    EDATA    FLOAT     current_l_pwm_inc_last
      00000709H   PUBLIC    EDATA    FLOAT     err_HM
      0000070DH   PUBLIC    EDATA    FLOAT     encoder_cross_element
      00000711H   PUBLIC    EDATA    FLOAT     current_r_pwm_inc_last
      00000715H   PUBLIC    EDATA    CHAR      encoder_straight_sign
      00000716H   PUBLIC    EDATA    CHAR      encoder_charge_sign
      00000717H   PUBLIC    EDATA    CHAR      encoder_speedup_sign
      00000718H   PUBLIC    EDATA    ---       adcdata_aver
      0000072CH   PUBLIC    EDATA    FLOAT     speed_damping
      00000730H   PUBLIC    EDATA    FLOAT     time_speedup_element
      00000734H   PUBLIC    EDATA    WORD      a
      00000736H   PUBLIC    EDATA    FLOAT     current_l_pwm_duty_turn
      0000073AH   PUBLIC    EDATA    FLOAT     dir_loop_limit
      0000073EH   PUBLIC    EDATA    WORD      b
      00000740H   PUBLIC    EDATA    FLOAT     current_r_pwm_duty_turn
      00000744H   PUBLIC    EDATA    FLOAT     l_pwm_inc_raw
      00000748H   PUBLIC    EDATA    FLOAT     gyro_roll_cross
      0000074CH   PUBLIC    EDATA    FLOAT     mot_inc
      00000750H   PUBLIC    EDATA    FLOAT     err_D
      00000754H   PUBLIC    EDATA    FLOAT     r_pwm_inc_raw
      00000758H   PUBLIC    EDATA    FLOAT     LM_x
      0000075CH   PUBLIC    EDATA    FLOAT     LM_y
      00000760H   PUBLIC    EDATA    FLOAT     err_H
      00000764H   PUBLIC    EDATA    FLOAT     Roll_x
      00000768H   PUBLIC    EDATA    FLOAT     RM_x
      0000076CH   PUBLIC    EDATA    FLOAT     err_M
      00000770H   PUBLIC    EDATA    FLOAT     current_l_pwm_duty_ang_turn
L251 LINKER/LOCATER V4.66.93.0                                                        06/21/2025  18:27:27  PAGE 70


      00000774H   PUBLIC    EDATA    FLOAT     RM_y
      000000D0H   SFRSYM    DATA     BYTE      PSW
      0000009DH   SFRSYM    DATA     BYTE      IRCBAND
      00000097H   SFRSYM    DATA     BYTE      AUXR2
      000000EFH   SFRSYM    DATA     BYTE      AUXINTIF
      000000FDH   SFRSYM    DATA     BYTE      S4CON
      000000ACH   SFRSYM    DATA     BYTE      S3CON
      0000009AH   SFRSYM    DATA     BYTE      S2CON
      000000FEH   SFRSYM    DATA     BYTE      S4BUF
      000000B7H   SFRSYM    DATA     BYTE      IPH
      000000CDH   SFRSYM    DATA     BYTE      SPSTAT
      000000DDH   SFRSYM    DATA     BYTE      T4T3M
      000000C1H   SFRSYM    DATA     BYTE      WDT_CONTR
      000000DFH   SFRSYM    DATA     BYTE      IP3
      000000F4H   SFRSYM    DATA     BYTE      USBCON
      000000B5H   SFRSYM    DATA     BYTE      IP2
      000000FFH   SFRSYM    DATA     BYTE      RSTCFG
      000000C7H   SFRSYM    DATA     BYTE      IAP_CONTR
      000000F9H   SFRSYM    DATA     BYTE      LINICR
      0000008EH   SFRSYM    DATA     BYTE      AUXR
      000000AFH   SFRSYM    DATA     BYTE      IE2
      000000C8H.2 SFRSYM    DATA     BIT       P52
      00000088H   SFRSYM    DATA     BYTE      TCON
      00000098H   SFRSYM    DATA     BYTE      SCON
      000000F1H   SFRSYM    DATA     BYTE      CANICR
      00000087H   SFRSYM    DATA     BYTE      PCON
      00000099H   SFRSYM    DATA     BYTE      SBUF
      000000BCH   SFRSYM    DATA     BYTE      ADC_CONTR
      000000E7H   SFRSYM    DATA     BYTE      CMPCR2
      000000E6H   SFRSYM    DATA     BYTE      CMPCR1
      000000B8H   SFRSYM    DATA     BYTE      IP
      0000008FH   SFRSYM    DATA     BYTE      INTCLKO
      000000EEH   SFRSYM    DATA     BYTE      IP3H
      000000B6H   SFRSYM    DATA     BYTE      IP2H
      000000A8H   SFRSYM    DATA     BYTE      IE
      000000BBH   SFRSYM    DATA     BYTE      P_SW3
      000000BAH   SFRSYM    DATA     BYTE      P_SW2
      000000A2H   SFRSYM    DATA     BYTE      P_SW1
      000000CEH   SFRSYM    DATA     BYTE      SPCTL
      000000F8H   SFRSYM    DATA     BYTE      P7
      000000E8H   SFRSYM    DATA     BYTE      P6
      000000C8H   SFRSYM    DATA     BYTE      P5
      000000C0H   SFRSYM    DATA     BYTE      P4
      000000B0H   SFRSYM    DATA     BYTE      P3
      000000A0H   SFRSYM    DATA     BYTE      P2
      00000090H   SFRSYM    DATA     BYTE      P1
      00000080H   SFRSYM    DATA     BYTE      P0

      00FF8F76H   BLOCK     CODE     ---       LVL=0
      00FF8F78H   BLOCK     CODE     NEAR LAB  LVL=1
      00000EBBH   SYMBOL    EDATA    BYTE      res
      00000778H   SYMBOL    EDATA    BYTE      dwon_count
      ---         BLOCKEND  ---      ---       LVL=1
      00FF8F76H   LINE      CODE     ---       #6
      00FF8F78H   LINE      CODE     ---       #7
      00FF8F78H   LINE      CODE     ---       #10
      00FF8F7DH   LINE      CODE     ---       #12
      00FF8F80H   LINE      CODE     ---       #13
      00FF8F85H   LINE      CODE     ---       #14
      00FF8F85H   LINE      CODE     ---       #15
      00FF8F8AH   LINE      CODE     ---       #17
      00FF8F8DH   LINE      CODE     ---       #18
      00FF8F93H   LINE      CODE     ---       #20
      00FF8F98H   LINE      CODE     ---       #22
      00FF8FAAH   LINE      CODE     ---       #23
L251 LINKER/LOCATER V4.66.93.0                                                        06/21/2025  18:27:27  PAGE 71


      00FF8FAEH   LINE      CODE     ---       #24
      00FF8FB0H   LINE      CODE     ---       #27
      00FF8FB5H   LINE      CODE     ---       #28
      00FF8FB5H   LINE      CODE     ---       #29
      ---         BLOCKEND  ---      ---       LVL=0

      00FF91B6H   BLOCK     CODE     ---       LVL=0
      00FF91B6H   LINE      CODE     ---       #33
      00FF91B8H   LINE      CODE     ---       #35
      00FF91BDH   LINE      CODE     ---       #37
      00FF91C0H   LINE      CODE     ---       #38
      00FF91C5H   LINE      CODE     ---       #39
      00FF91C5H   LINE      CODE     ---       #40
      00FF91CAH   LINE      CODE     ---       #42
      00FF91CDH   LINE      CODE     ---       #45
      ---         BLOCKEND  ---      ---       LVL=0

      00FF91D0H   BLOCK     CODE     ---       LVL=0
      00FF91D0H   LINE      CODE     ---       #50
      00FF91D2H   LINE      CODE     ---       #52
      00FF91D7H   LINE      CODE     ---       #54
      00FF91DAH   LINE      CODE     ---       #55
      00FF91DFH   LINE      CODE     ---       #56
      00FF91DFH   LINE      CODE     ---       #57
      00FF91E4H   LINE      CODE     ---       #59
      00FF91E7H   LINE      CODE     ---       #62
      ---         BLOCKEND  ---      ---       LVL=0

      00FF8583H   BLOCK     CODE     ---       LVL=0
      00FF8583H   LINE      CODE     ---       #67
      00FF8597H   LINE      CODE     ---       #69
      00FF859CH   LINE      CODE     ---       #71
      00FF859FH   LINE      CODE     ---       #72
      00FF85A4H   LINE      CODE     ---       #73
      00FF85A4H   LINE      CODE     ---       #75
      00FF85A9H   LINE      CODE     ---       #77
      00FF85ACH   LINE      CODE     ---       #80
      00FF85BAH   LINE      CODE     ---       #82
      00FF85CFH   LINE      CODE     ---       #84
      00FF85D6H   LINE      CODE     ---       #86
      00FF85D9H   LINE      CODE     ---       #87
      00FF85E5H   LINE      CODE     ---       #88
      00FF85EBH   LINE      CODE     ---       #89
      00FF85EBH   LINE      CODE     ---       #93
      00FF85F5H   LINE      CODE     ---       #96
      00FF85FDH   LINE      CODE     ---       #99
      00FF85FDH   LINE      CODE     ---       #101
      ---         BLOCKEND  ---      ---       LVL=0

      00FF000EH   BLOCK     CODE     ---       LVL=0
      00FF000EH   LINE      CODE     ---       #104
      00FF000EH   LINE      CODE     ---       #106
      00FF0011H   LINE      CODE     ---       #107
      ---         BLOCKEND  ---      ---       LVL=0

      00FF000AH   BLOCK     CODE     ---       LVL=0
      00FF000AH   LINE      CODE     ---       #108
      00FF000AH   LINE      CODE     ---       #111
      ---         BLOCKEND  ---      ---       LVL=0

      00FF0016H   BLOCK     CODE     ---       LVL=0
      00FF0016H   LINE      CODE     ---       #112
      00FF0016H   LINE      CODE     ---       #114
      00FF0019H   LINE      CODE     ---       #115
      ---         BLOCKEND  ---      ---       LVL=0
L251 LINKER/LOCATER V4.66.93.0                                                        06/21/2025  18:27:27  PAGE 72



      00FF001EH   BLOCK     CODE     ---       LVL=0
      00FF001EH   LINE      CODE     ---       #116
      00FF001EH   LINE      CODE     ---       #118
      00FF0021H   LINE      CODE     ---       #119
      ---         BLOCKEND  ---      ---       LVL=0

      00FF0046H   BLOCK     CODE     ---       LVL=0
      00FF0046H   LINE      CODE     ---       #121
      00FF0046H   LINE      CODE     ---       #123
      00FF0049H   LINE      CODE     ---       #124
      ---         BLOCKEND  ---      ---       LVL=0

      00FF0012H   BLOCK     CODE     ---       LVL=0
      00FF0012H   LINE      CODE     ---       #126
      00FF0012H   LINE      CODE     ---       #129
      ---         BLOCKEND  ---      ---       LVL=0

      00FF58CDH   BLOCK     CODE     ---       LVL=0
      00FF58E3H   BLOCK     CODE     NEAR LAB  LVL=1
      00000779H   SYMBOL    EDATA    INT       timer_call_count
      0000078BH   SYMBOL    EDATA    WORD      stall_event_counter
      00000020H.0 SYMBOL    BIT      BIT       time_speedup_brake_started
      0000078DH   SYMBOL    EDATA    WORD      run_mode2_counter
      00000020H.1 SYMBOL    BIT      BIT       run_mode2_timing_started
      ---         BLOCKEND  ---      ---       LVL=1
      00FF58CDH   LINE      CODE     ---       #235
      00FF58E3H   LINE      CODE     ---       #236
      00FF58E3H   LINE      CODE     ---       #248
      00FF58E6H   LINE      CODE     ---       #252
      00FF58F8H   LINE      CODE     ---       #253
      00FF590AH   LINE      CODE     ---       #258
      00FF5916H   LINE      CODE     ---       #259
      00FF5924H   LINE      CODE     ---       #260
      00FF592AH   LINE      CODE     ---       #261
      00FF5930H   LINE      CODE     ---       #262
      00FF5936H   LINE      CODE     ---       #263
      00FF5938H   LINE      CODE     ---       #264
      00FF5941H   LINE      CODE     ---       #265
      00FF596EH   LINE      CODE     ---       #267
      00FF596EH   LINE      CODE     ---       #269
      00FF597BH   LINE      CODE     ---       #272
      00FF5988H   LINE      CODE     ---       #275
      00FF5991H   LINE      CODE     ---       #277
      00FF59BEH   LINE      CODE     ---       #280
      00FF59CBH   LINE      CODE     ---       #284
      00FF59D8H   LINE      CODE     ---       #342
      00FF59E3H   LINE      CODE     ---       #370
      00FF59F7H   LINE      CODE     ---       #371
      00FF5A03H   LINE      CODE     ---       #372
      00FF5A05H   LINE      CODE     ---       #373
      00FF5A11H   LINE      CODE     ---       #374
      00FF5A11H   LINE      CODE     ---       #378
      00FF5A27H   LINE      CODE     ---       #379
      00FF5A3EH   LINE      CODE     ---       #382
      00FF5A49H   LINE      CODE     ---       #384
      00FF5A61H   LINE      CODE     ---       #385
      00FF5A80H   LINE      CODE     ---       #386
      00FF5A82H   LINE      CODE     ---       #388
      00FF5AA1H   LINE      CODE     ---       #389
      00FF5AB9H   LINE      CODE     ---       #390
      00FF5AB9H   LINE      CODE     ---       #394
      00FF5AD9H   LINE      CODE     ---       #395
      00FF5AF9H   LINE      CODE     ---       #398
      00FF5B22H   LINE      CODE     ---       #399
L251 LINKER/LOCATER V4.66.93.0                                                        06/21/2025  18:27:27  PAGE 73


      00FF5B4BH   LINE      CODE     ---       #402
      00FF5B53H   LINE      CODE     ---       #403
      00FF5B5BH   LINE      CODE     ---       #406
      00FF5B76H   LINE      CODE     ---       #407
      00FF5B91H   LINE      CODE     ---       #456
      00FF5B99H   LINE      CODE     ---       #457
      00FF5BA1H   LINE      CODE     ---       #460
      00FF5BBCH   LINE      CODE     ---       #461
      00FF5BD7H   LINE      CODE     ---       #491
      00FF5BF2H   LINE      CODE     ---       #492
      00FF5C0DH   LINE      CODE     ---       #500
      00FF5C10H   LINE      CODE     ---       #502
      00FF5C19H   LINE      CODE     ---       #503
      00FF5C1FH   LINE      CODE     ---       #504
      00FF5C25H   LINE      CODE     ---       #505
      00FF5C2BH   LINE      CODE     ---       #506
      00FF5C2BH   LINE      CODE     ---       #515
      00FF5C2EH   LINE      CODE     ---       #520
      ---         BLOCKEND  ---      ---       LVL=0

      00FF61F8H   BLOCK     CODE     ---       LVL=0
      00FF61F8H   LINE      CODE     ---       #546
      00FF620CH   LINE      CODE     ---       #553
      00FF6223H   LINE      CODE     ---       #554
      00FF623AH   LINE      CODE     ---       #555
      00FF6251H   LINE      CODE     ---       #556
      00FF6268H   LINE      CODE     ---       #557
      00FF627DH   LINE      CODE     ---       #560
      00FF6294H   LINE      CODE     ---       #561
      00FF62ABH   LINE      CODE     ---       #562
      00FF62C2H   LINE      CODE     ---       #563
      00FF62D9H   LINE      CODE     ---       #564
      00FF62F0H   LINE      CODE     ---       #566
      00FF6307H   LINE      CODE     ---       #567
      00FF631EH   LINE      CODE     ---       #568
      00FF6335H   LINE      CODE     ---       #569
      00FF634CH   LINE      CODE     ---       #570
      00FF6363H   LINE      CODE     ---       #574
      00FF636BH   LINE      CODE     ---       #575
      00FF6373H   LINE      CODE     ---       #584
      00FF6409H   LINE      CODE     ---       #598
      00FF640DH   LINE      CODE     ---       #600
      00FF6472H   LINE      CODE     ---       #604
      00FF6476H   LINE      CODE     ---       #606
      00FF6496H   LINE      CODE     ---       #608
      00FF649EH   LINE      CODE     ---       #610
      00FF64B3H   LINE      CODE     ---       #622
      00FF64B6H   LINE      CODE     ---       #624
      ---         BLOCKEND  ---      ---       LVL=0

      ---         MODULE    ---      ---       main
      00FF5C45H   PUBLIC    CODE     ---       main
      00000C6EH   PUBLIC    EDATA    BYTE      display_mode
      00000C6FH   PUBLIC    EDATA    FLOAT     adc_vbat
      00000C73H   PUBLIC    EDATA    BYTE      menu_sign
      00000C74H   PUBLIC    EDATA    BYTE      key_value
      00000C75H   PUBLIC    EDATA    CHAR      key_mode
      00000C76H   PUBLIC    EDATA    FLOAT     vbat_in
      000000D0H   SFRSYM    DATA     BYTE      PSW
      0000009DH   SFRSYM    DATA     BYTE      IRCBAND
      00000097H   SFRSYM    DATA     BYTE      AUXR2
      000000EFH   SFRSYM    DATA     BYTE      AUXINTIF
      000000FDH   SFRSYM    DATA     BYTE      S4CON
      000000ACH   SFRSYM    DATA     BYTE      S3CON
      0000009AH   SFRSYM    DATA     BYTE      S2CON
L251 LINKER/LOCATER V4.66.93.0                                                        06/21/2025  18:27:27  PAGE 74


      000000B7H   SFRSYM    DATA     BYTE      IPH
      000000CDH   SFRSYM    DATA     BYTE      SPSTAT
      000000DDH   SFRSYM    DATA     BYTE      T4T3M
      000000C1H   SFRSYM    DATA     BYTE      WDT_CONTR
      000000DFH   SFRSYM    DATA     BYTE      IP3
      000000F4H   SFRSYM    DATA     BYTE      USBCON
      000000B5H   SFRSYM    DATA     BYTE      IP2
      000000FFH   SFRSYM    DATA     BYTE      RSTCFG
      000000F9H   SFRSYM    DATA     BYTE      LINICR
      0000008EH   SFRSYM    DATA     BYTE      AUXR
      000000AFH   SFRSYM    DATA     BYTE      IE2
      000000C8H.2 SFRSYM    DATA     BIT       P52
      00000088H   SFRSYM    DATA     BYTE      TCON
      00000098H   SFRSYM    DATA     BYTE      SCON
      000000F1H   SFRSYM    DATA     BYTE      CANICR
      00000087H   SFRSYM    DATA     BYTE      PCON
      000000BCH   SFRSYM    DATA     BYTE      ADC_CONTR
      000000E7H   SFRSYM    DATA     BYTE      CMPCR2
      000000E6H   SFRSYM    DATA     BYTE      CMPCR1
      000000B8H   SFRSYM    DATA     BYTE      IP
      0000008FH   SFRSYM    DATA     BYTE      INTCLKO
      000000EEH   SFRSYM    DATA     BYTE      IP3H
      000000B6H   SFRSYM    DATA     BYTE      IP2H
      000000A8H   SFRSYM    DATA     BYTE      IE
      000000BBH   SFRSYM    DATA     BYTE      P_SW3
      000000BAH   SFRSYM    DATA     BYTE      P_SW2
      000000A2H   SFRSYM    DATA     BYTE      P_SW1
      000000CEH   SFRSYM    DATA     BYTE      SPCTL
      000000F8H   SFRSYM    DATA     BYTE      P7
      000000E8H   SFRSYM    DATA     BYTE      P6
      000000C8H   SFRSYM    DATA     BYTE      P5
      000000C0H   SFRSYM    DATA     BYTE      P4
      000000B0H   SFRSYM    DATA     BYTE      P3
      000000A0H   SFRSYM    DATA     BYTE      P2
      00000090H   SFRSYM    DATA     BYTE      P1
      00000080H   SFRSYM    DATA     BYTE      P0

      00FF5C45H   BLOCK     CODE     ---       LVL=0
      00FF5C45H   LINE      CODE     ---       #23
      00FF5C45H   LINE      CODE     ---       #26
      00FF5C51H   LINE      CODE     ---       #27
      00FF5C5DH   LINE      CODE     ---       #28
      00FF5C63H   LINE      CODE     ---       #30
      00FF5C6FH   LINE      CODE     ---       #31
      00FF5C7BH   LINE      CODE     ---       #32
      00FF5C81H   LINE      CODE     ---       #35
      00FF5C8BH   LINE      CODE     ---       #36
      00FF5C95H   LINE      CODE     ---       #37
      00FF5C9FH   LINE      CODE     ---       #38
      00FF5CABH   LINE      CODE     ---       #43
      00FF5CB7H   LINE      CODE     ---       #44
      00FF5CC3H   LINE      CODE     ---       #45
      00FF5CCDH   LINE      CODE     ---       #46
      00FF5CD3H   LINE      CODE     ---       #49
      00FF5CD6H   LINE      CODE     ---       #50
      00FF5CDFH   LINE      CODE     ---       #51
      00FF5CE2H   LINE      CODE     ---       #55
      00FF5CE5H   LINE      CODE     ---       #56
      00FF5CE8H   LINE      CODE     ---       #57
      00FF5CEBH   LINE      CODE     ---       #64
      00FF5CF6H   LINE      CODE     ---       #65
      00FF5D01H   LINE      CODE     ---       #68
      00FF5D04H   LINE      CODE     ---       #70
      00FF5D0BH   LINE      CODE     ---       #73
      00FF5D0EH   LINE      CODE     ---       #79
L251 LINKER/LOCATER V4.66.93.0                                                        06/21/2025  18:27:27  PAGE 75


      00FF5D0EH   LINE      CODE     ---       #85
      00FF5D2AH   LINE      CODE     ---       #86
      00FF5D46H   LINE      CODE     ---       #87
      00FF5D62H   LINE      CODE     ---       #89
      00FF5D6DH   LINE      CODE     ---       #90
      00FF5D78H   LINE      CODE     ---       #93
      00FF5D81H   LINE      CODE     ---       #94
      00FF5D88H   LINE      CODE     ---       #96
      00FF5D9EH   LINE      CODE     ---       #97
      00FF5DA3H   LINE      CODE     ---       #98
      00FF5DA5H   LINE      CODE     ---       #99
      00FF5DB2H   LINE      CODE     ---       #100
      00FF5DB2H   LINE      CODE     ---       #101
      00FF5DB4H   LINE      CODE     ---       #103
      00FF5DBDH   LINE      CODE     ---       #104
      00FF5DC4H   LINE      CODE     ---       #106
      00FF5DCDH   LINE      CODE     ---       #107
      00FF5DDDH   LINE      CODE     ---       #108
      00FF5DDFH   LINE      CODE     ---       #109
      00FF5DEBH   LINE      CODE     ---       #110
      00FF5DEBH   LINE      CODE     ---       #111
      00FF5DEBH   LINE      CODE     ---       #122
      00FF5E17H   LINE      CODE     ---       #123
      00FF5E1DH   LINE      CODE     ---       #125
      00FF5E3FH   LINE      CODE     ---       #127
      00FF5E62H   LINE      CODE     ---       #129
      00FF5E68H   LINE      CODE     ---       #131
      00FF5E6EH   LINE      CODE     ---       #133
      00FF5E78H   LINE      CODE     ---       #135
      00FF5E7EH   LINE      CODE     ---       #137
      00FF5E84H   LINE      CODE     ---       #139
      00FF5E84H   LINE      CODE     ---       #143
      00FF5EAAH   LINE      CODE     ---       #144
      00FF5ED0H   LINE      CODE     ---       #145
      00FF5EF6H   LINE      CODE     ---       #146
      00FF5F1CH   LINE      CODE     ---       #151
      00FF5F1CH   LINE      CODE     ---       #152
      00FF5F1CH   LINE      CODE     ---       #181
      00FF5F1FH   LINE      CODE     ---       #184
      ---         BLOCKEND  ---      ---       LVL=0

      ---         MODULE    ---      ---       control
      00FF86A1H   PUBLIC    CODE     ---       key_scan_cycle_pwm_state
      00FF8E01H   PUBLIC    CODE     ---       adjust_parameter_by_key_float
      00FF8F33H   PUBLIC    CODE     ---       limit_float
      00FF8EE9H   PUBLIC    CODE     ---       update_gyro_angle_accumulator
      00FF9162H   PUBLIC    CODE     ---       change_speed_Target_base
      00FF8B43H   PUBLIC    CODE     ---       update_encoder_speedup_value
      00FF7F67H   PUBLIC    CODE     ---       init
      00FF87B1H   PUBLIC    CODE     ---       normalize_float
      00FF7BCCH   PUBLIC    CODE     ---       key_scan
      00FF882FH   PUBLIC    CODE     ---       read_adc_average
      00FF90CBH   PUBLIC    CODE     ---       buzzer_control_with_enable
      0000081CH   PUBLIC    EDATA    BYTE      Pwmout
      0000081DH   PUBLIC    EDATA    FLOAT     base_speed
      00000821H   PUBLIC    EDATA    INT       sample_count
      00000823H   PUBLIC    EDATA    FLOAT     roll_accel
      00000827H   PUBLIC    EDATA    FLOAT     angle_error
      0000082BH   PUBLIC    EDATA    FLOAT     LM
      0000082FH   PUBLIC    EDATA    FLOAT     pitch
      00000833H   PUBLIC    EDATA    WORD      k1
      00000835H   PUBLIC    EDATA    FLOAT     RM
      00000839H   PUBLIC    EDATA    INT       state
      0000083BH   PUBLIC    EDATA    CHAR      pwm_state_charge
      0000083CH   PUBLIC    EDATA    WORD      min_AD
L251 LINKER/LOCATER V4.66.93.0                                                        06/21/2025  18:27:27  PAGE 76


      0000083EH   PUBLIC    EDATA    WORD      max_AD
      00000840H   PUBLIC    EDATA    BYTE      current_key
      00000841H   PUBLIC    EDATA    WORD      temp
      00000843H   PUBLIC    EDATA    FLOAT     roll
      00000847H   PUBLIC    EDATA    FLOAT     gyro_pitch
      0000084BH   PUBLIC    EDATA    ---       gyro_data
      0000084FH   PUBLIC    EDATA    FLOAT     Angle_x
      00000853H   PUBLIC    EDATA    FLOAT     turn_control_output
      00000857H   PUBLIC    EDATA    FLOAT     L
      0000085BH   PUBLIC    EDATA    FLOAT     R
      0000085FH   PUBLIC    EDATA    FLOAT     MID
      00000863H   PUBLIC    EDATA    BYTE      pwm_state
      00000864H   PUBLIC    EDATA    FLOAT     gyro_roll
      00000868H   PUBLIC    EDATA    BYTE      last_key_state
      00000869H   PUBLIC    EDATA    WORD      i
      0000086BH   PUBLIC    EDATA    WORD      j
      0000086DH   PUBLIC    EDATA    FLOAT     current_angle
      00000871H   PUBLIC    EDATA    FLOAT     target_angle
      00000875H   PUBLIC    EDATA    FLOAT     pitch_accel
      00000879H   PUBLIC    EDATA    FLOAT     L_raw
      0000087DH   PUBLIC    EDATA    FLOAT     R_raw
      00000C7AH   PUBLIC    EDATA    BYTE      ?low_pass_filter?BYTE
      00000D00H   PUBLIC    EDATA    BYTE      ?buzzer_control_with_enable?BYTE
      00000B84H   PUBLIC    EDATA    BYTE      ?limit_float?BYTE
      00000AFAH   PUBLIC    EDATA    BYTE      ?normalize_float?BYTE
      000000D0H   SFRSYM    DATA     BYTE      PSW
      0000009DH   SFRSYM    DATA     BYTE      IRCBAND
      00000097H   SFRSYM    DATA     BYTE      AUXR2
      000000EFH   SFRSYM    DATA     BYTE      AUXINTIF
      000000FDH   SFRSYM    DATA     BYTE      S4CON
      000000ACH   SFRSYM    DATA     BYTE      S3CON
      0000009AH   SFRSYM    DATA     BYTE      S2CON
      000000B7H   SFRSYM    DATA     BYTE      IPH
      000000CDH   SFRSYM    DATA     BYTE      SPSTAT
      000000DDH   SFRSYM    DATA     BYTE      T4T3M
      000000C1H   SFRSYM    DATA     BYTE      WDT_CONTR
      000000DFH   SFRSYM    DATA     BYTE      IP3
      000000F4H   SFRSYM    DATA     BYTE      USBCON
      000000B5H   SFRSYM    DATA     BYTE      IP2
      000000FFH   SFRSYM    DATA     BYTE      RSTCFG
      000000F9H   SFRSYM    DATA     BYTE      LINICR
      0000008EH   SFRSYM    DATA     BYTE      AUXR
      000000AFH   SFRSYM    DATA     BYTE      IE2
      000000F8H.7 SFRSYM    DATA     BIT       P77
      000000F8H.6 SFRSYM    DATA     BIT       P76
      000000F8H.5 SFRSYM    DATA     BIT       P75
      000000C0H.6 SFRSYM    DATA     BIT       P46
      000000C0H.5 SFRSYM    DATA     BIT       P45
      000000C8H.2 SFRSYM    DATA     BIT       P52
      00000088H   SFRSYM    DATA     BYTE      TCON
      00000098H   SFRSYM    DATA     BYTE      SCON
      000000F1H   SFRSYM    DATA     BYTE      CANICR
      00000087H   SFRSYM    DATA     BYTE      PCON
      000000BCH   SFRSYM    DATA     BYTE      ADC_CONTR
      000000E7H   SFRSYM    DATA     BYTE      CMPCR2
      000000E6H   SFRSYM    DATA     BYTE      CMPCR1
      000000B8H   SFRSYM    DATA     BYTE      IP
      0000008FH   SFRSYM    DATA     BYTE      INTCLKO
      000000EEH   SFRSYM    DATA     BYTE      IP3H
      000000B6H   SFRSYM    DATA     BYTE      IP2H
      000000A8H   SFRSYM    DATA     BYTE      IE
      000000BBH   SFRSYM    DATA     BYTE      P_SW3
      000000BAH   SFRSYM    DATA     BYTE      P_SW2
      000000A2H   SFRSYM    DATA     BYTE      P_SW1
      000000CEH   SFRSYM    DATA     BYTE      SPCTL
L251 LINKER/LOCATER V4.66.93.0                                                        06/21/2025  18:27:27  PAGE 77


      000000F8H   SFRSYM    DATA     BYTE      P7
      000000E8H   SFRSYM    DATA     BYTE      P6
      000000C8H   SFRSYM    DATA     BYTE      P5
      000000C0H   SFRSYM    DATA     BYTE      P4
      000000B0H   SFRSYM    DATA     BYTE      P3
      000000A0H   SFRSYM    DATA     BYTE      P2
      00000090H   SFRSYM    DATA     BYTE      P1
      00000080H   SFRSYM    DATA     BYTE      P0
      00000DB8H   SYMBOL    EDATA    FLOAT     left_target
      00000DBCH   SYMBOL    EDATA    FLOAT     right_target

      00FF7F67H   BLOCK     CODE     ---       LVL=0
      00FF7F67H   LINE      CODE     ---       #52
      00FF7F67H   LINE      CODE     ---       #55
      00FF7F70H   LINE      CODE     ---       #56
      00FF7F79H   LINE      CODE     ---       #57
      00FF7F80H   LINE      CODE     ---       #58
      00FF7F89H   LINE      CODE     ---       #59
      00FF7F92H   LINE      CODE     ---       #60
      00FF7F99H   LINE      CODE     ---       #62
      00FF7F9EH   LINE      CODE     ---       #63
      00FF7FA5H   LINE      CODE     ---       #64
      00FF7FACH   LINE      CODE     ---       #66
      00FF7FBDH   LINE      CODE     ---       #67
      00FF7FCEH   LINE      CODE     ---       #68
      00FF7FDFH   LINE      CODE     ---       #69
      00FF7FF0H   LINE      CODE     ---       #70
      00FF7FF7H   LINE      CODE     ---       #72
      00FF7FFAH   LINE      CODE     ---       #75
      00FF8005H   LINE      CODE     ---       #76
      00FF8010H   LINE      CODE     ---       #77
      00FF801BH   LINE      CODE     ---       #78
      00FF8026H   LINE      CODE     ---       #81
      ---         BLOCKEND  ---      ---       LVL=0

      00FF7BCCH   BLOCK     CODE     ---       LVL=0
      00000EA6H   SYMBOL    EDATA    INT       mode
      00FF7BD0H   BLOCK     CODE     NEAR LAB  LVL=1
      00000881H   SYMBOL    EDATA    WORD      key_pressed_state
      ---         BLOCKEND  ---      ---       LVL=1
      00FF7BCCH   LINE      CODE     ---       #96
      00FF7BD0H   LINE      CODE     ---       #98
      00FF7BE2H   LINE      CODE     ---       #99
      00FF7C21H   LINE      CODE     ---       #100
      00FF7C28H   LINE      CODE     ---       #101
      00FF7C58H   LINE      CODE     ---       #102
      00FF7C5EH   LINE      CODE     ---       #103
      00FF7C78H   LINE      CODE     ---       #104
      00FF7C92H   LINE      CODE     ---       #105
      00FF7C9FH   LINE      CODE     ---       #106
      00FF7CA2H   LINE      CODE     ---       #107
      00FF7CA2H   LINE      CODE     ---       #108
      00FF7CD9H   LINE      CODE     ---       #109
      00FF7CE1H   LINE      CODE     ---       #110
      00FF7CE1H   LINE      CODE     ---       #111
      00FF7CE2H   LINE      CODE     ---       #112
      ---         BLOCKEND  ---      ---       LVL=0

      00FF86A1H   BLOCK     CODE     ---       LVL=0
      00000883H   SYMBOL    EDATA    BYTE      key
      00000884H   SYMBOL    EDATA    BYTE      debounce_counter
      00000885H   SYMBOL    EDATA    BYTE      last_stable_pin_state
      00000EBCH   SYMBOL    EDATA    BYTE      current_pin_state
      00FF86A1H   LINE      CODE     ---       #130
      00FF86A1H   LINE      CODE     ---       #131
L251 LINKER/LOCATER V4.66.93.0                                                        06/21/2025  18:27:27  PAGE 78


      00FF86A1H   LINE      CODE     ---       #137
      00FF86B5H   LINE      CODE     ---       #139
      00FF86C1H   LINE      CODE     ---       #141
      00FF86C7H   LINE      CODE     ---       #142
      00FF86CFH   LINE      CODE     ---       #143
      00FF86D1H   LINE      CODE     ---       #144
      00FF86D1H   LINE      CODE     ---       #146
      00FF86DAH   LINE      CODE     ---       #148
      00FF86E6H   LINE      CODE     ---       #149
      00FF86E8H   LINE      CODE     ---       #150
      00FF86E8H   LINE      CODE     ---       #152
      00FF86F1H   LINE      CODE     ---       #154
      00FF86FAH   LINE      CODE     ---       #156
      00FF86FFH   LINE      CODE     ---       #157
      00FF8718H   LINE      CODE     ---       #158
      00FF871CH   LINE      CODE     ---       #159
      00FF871EH   LINE      CODE     ---       #163
      00FF8727H   LINE      CODE     ---       #165
      00FF872DH   LINE      CODE     ---       #166
      00FF872DH   LINE      CODE     ---       #170
      ---         BLOCKEND  ---      ---       LVL=0

      00FF8E01H   BLOCK     CODE     ---       LVL=0
      00000D5DH   SYMBOL    EDATA    BYTE      key_value
      00000D5EH   SYMBOL    EDATA    ---       parameter
      00000D62H   SYMBOL    EDATA    FLOAT     step
      00FF8E01H   LINE      CODE     ---       #183
      00FF8E0DH   LINE      CODE     ---       #184
      00FF8E12H   LINE      CODE     ---       #185
      00FF8E2BH   LINE      CODE     ---       #186
      00FF8E36H   LINE      CODE     ---       #187
      00FF8E4FH   LINE      CODE     ---       #190
      ---         BLOCKEND  ---      ---       LVL=0
      00000C7AH   SYMBOL    EDATA    FLOAT     current_value
      00000C7EH   SYMBOL    EDATA    FLOAT     last_value
      00000C82H   SYMBOL    EDATA    FLOAT     alpha
      00000E82H   SYMBOL    EDATA    ---       angle
      00000EA8H   SYMBOL    EDATA    INT       speed

      00FF9162H   BLOCK     CODE     ---       LVL=0
      00000EAAH   SYMBOL    EDATA    INT       speed
      00FF9162H   LINE      CODE     ---       #226
      00FF9166H   LINE      CODE     ---       #227
      00FF9173H   LINE      CODE     ---       #228
      00FF9180H   LINE      CODE     ---       #229
      ---         BLOCKEND  ---      ---       LVL=0
      00000DC0H   SYMBOL    EDATA    FLOAT     input
      00000DC4H   SYMBOL    EDATA    FLOAT     limit
      00000BFCH   SYMBOL    EDATA    WORD      M
      00000BFEH   SYMBOL    EDATA    FLOAT     k
      00000C02H   SYMBOL    EDATA    FLOAT     m
      00000C06H   SYMBOL    EDATA    FLOAT     b

      00FF90CBH   BLOCK     CODE     ---       LVL=0
      00000D00H   SYMBOL    EDATA    FLOAT     check_value
      00000D04H   SYMBOL    EDATA    FLOAT     abs_threshold
      00000D08H   SYMBOL    EDATA    INT       enable_state
      00FF90CBH   LINE      CODE     ---       #382
      00FF90D3H   LINE      CODE     ---       #388
      00FF90EBH   LINE      CODE     ---       #391
      00FF90EEH   LINE      CODE     ---       #392
      00FF90F0H   LINE      CODE     ---       #396
      00FF90F3H   LINE      CODE     ---       #397
      00FF90F3H   LINE      CODE     ---       #421
      ---         BLOCKEND  ---      ---       LVL=0
L251 LINKER/LOCATER V4.66.93.0                                                        06/21/2025  18:27:27  PAGE 79



      00FF882FH   BLOCK     CODE     ---       LVL=0
      00000C0AH   SYMBOL    EDATA    INT       channel
      00000C0CH   SYMBOL    EDATA    WORD      avg_times
      00000C0EH   SYMBOL    EDATA    INT       resolution
      00FF883BH   BLOCK     CODE     NEAR LAB  LVL=1
      00000C10H   SYMBOL    EDATA    DWORD     sum
      00000C14H   SYMBOL    EDATA    WORD      adc_value
      00000C16H   SYMBOL    EDATA    WORD      i
      ---         BLOCKEND  ---      ---       LVL=1
      00FF882FH   LINE      CODE     ---       #441
      00FF883BH   LINE      CODE     ---       #442
      00FF883BH   LINE      CODE     ---       #443
      00FF8841H   LINE      CODE     ---       #444
      00FF8847H   LINE      CODE     ---       #447
      00FF8851H   LINE      CODE     ---       #448
      00FF8859H   LINE      CODE     ---       #449
      00FF8859H   LINE      CODE     ---       #451
      00FF8861H   LINE      CODE     ---       #453
      00FF8870H   LINE      CODE     ---       #455
      00FF8880H   LINE      CODE     ---       #456
      00FF889AH   LINE      CODE     ---       #458
      00FF88A5H   LINE      CODE     ---       #459
      ---         BLOCKEND  ---      ---       LVL=0

      00FF8F33H   BLOCK     CODE     ---       LVL=0
      00000B84H   SYMBOL    EDATA    FLOAT     value
      00000B88H   SYMBOL    EDATA    FLOAT     min_limit
      00000B8CH   SYMBOL    EDATA    FLOAT     max_limit
      00FF8F3BH   BLOCK     CODE     NEAR LAB  LVL=1
      00000B90H   SYMBOL    EDATA    FLOAT     result
      ---         BLOCKEND  ---      ---       LVL=1
      00FF8F33H   LINE      CODE     ---       #464
      00FF8F3BH   LINE      CODE     ---       #465
      00FF8F3BH   LINE      CODE     ---       #468
      00FF8F48H   LINE      CODE     ---       #470
      00FF8F50H   LINE      CODE     ---       #471
      00FF8F52H   LINE      CODE     ---       #472
      00FF8F5FH   LINE      CODE     ---       #474
      00FF8F67H   LINE      CODE     ---       #475
      00FF8F69H   LINE      CODE     ---       #478
      00FF8F71H   LINE      CODE     ---       #479
      00FF8F71H   LINE      CODE     ---       #481
      00FF8F75H   LINE      CODE     ---       #482
      ---         BLOCKEND  ---      ---       LVL=0

      00FF87B1H   BLOCK     CODE     ---       LVL=0
      00000AFAH   SYMBOL    EDATA    FLOAT     value
      00000AFEH   SYMBOL    EDATA    FLOAT     min
      00000B02H   SYMBOL    EDATA    FLOAT     max
      00FF87B9H   BLOCK     CODE     NEAR LAB  LVL=1
      00000B06H   SYMBOL    EDATA    FLOAT     diff
      00000B0AH   SYMBOL    EDATA    FLOAT     range
      00000B0EH   SYMBOL    EDATA    FLOAT     result
      ---         BLOCKEND  ---      ---       LVL=1
      00FF87B1H   LINE      CODE     ---       #487
      00FF87B9H   LINE      CODE     ---       #488
      00FF87B9H   LINE      CODE     ---       #493
      00FF87C6H   LINE      CODE     ---       #495
      00FF87CAH   LINE      CODE     ---       #496
      00FF87CAH   LINE      CODE     ---       #498
      00FF87D9H   LINE      CODE     ---       #500
      00FF87E8H   LINE      CODE     ---       #502
      00FF8800H   LINE      CODE     ---       #505
      00FF880FH   LINE      CODE     ---       #507
L251 LINKER/LOCATER V4.66.93.0                                                        06/21/2025  18:27:27  PAGE 80


      00FF8819H   LINE      CODE     ---       #508
      00FF8819H   LINE      CODE     ---       #510
      00FF8824H   LINE      CODE     ---       #512
      00FF882AH   LINE      CODE     ---       #513
      00FF882AH   LINE      CODE     ---       #515
      00FF882EH   LINE      CODE     ---       #516
      ---         BLOCKEND  ---      ---       LVL=0
      00000AC8H   SYMBOL    EDATA    FLOAT     current_mid_value
      00000ACCH   SYMBOL    EDATA    INT       MID_min_threshold
      00000ACEH   SYMBOL    EDATA    INT       speed_at_MID_min
      00000AD0H   SYMBOL    EDATA    INT       MID_max_threshold
      00000AD2H   SYMBOL    EDATA    INT       speed_at_MID_max
      00000AD4H   SYMBOL    EDATA    INT       calculated_speed
      00000AD6H   SYMBOL    EDATA    FLOAT     mid_ratio
      00000ADAH   SYMBOL    EDATA    FLOAT     quartic_factor
      00000ADEH   SYMBOL    EDATA    FLOAT     speed_range

      00FF8B43H   BLOCK     CODE     ---       LVL=0
      00000E31H   SYMBOL    EDATA    ---       p_encoder_speedup_element
      00000E35H   SYMBOL    EDATA    INT       current_encoder_speedup_sign
      00FF8B43H   LINE      CODE     ---       #807
      00FF8B4DH   LINE      CODE     ---       #810
      00FF8B59H   LINE      CODE     ---       #812
      00FF8B90H   LINE      CODE     ---       #813
      00FF8B92H   LINE      CODE     ---       #814
      00FF8B9FH   LINE      CODE     ---       #815
      00FF8B9FH   LINE      CODE     ---       #816
      ---         BLOCKEND  ---      ---       LVL=0

      00FF8EE9H   BLOCK     CODE     ---       LVL=0
      00000E37H   SYMBOL    EDATA    ---       p_angle_accumulator
      00000E3BH   SYMBOL    EDATA    INT       sign_flag
      00FF8EE9H   LINE      CODE     ---       #819
      00FF8EF1H   LINE      CODE     ---       #822
      00FF8EFDH   LINE      CODE     ---       #824
      00FF8F23H   LINE      CODE     ---       #825
      00FF8F25H   LINE      CODE     ---       #826
      00FF8F32H   LINE      CODE     ---       #827
      00FF8F32H   LINE      CODE     ---       #828
      ---         BLOCKEND  ---      ---       LVL=0

      ---         MODULE    ---      ---       menu
      00FF7270H   PUBLIC    CODE     ---       display_submenu_ee
      00FF64CBH   PUBLIC    CODE     ---       display_motor
      00FF4650H   PUBLIC    CODE     ---       display_gyro
      00FF6E88H   PUBLIC    CODE     ---       display_straight_param
      00FF6A3CH   PUBLIC    CODE     ---       display_submenu_check
      00FF4A21H   PUBLIC    CODE     ---       display_g
      00FF5193H   PUBLIC    CODE     ---       display_t
      000009DFH   PUBLIC    EDATA    INT       current_menu_level
      000009E1H   PUBLIC    EDATA    ---       main_menu_options
      000009F9H   PUBLIC    EDATA    BYTE      key_mode_local
      000009FAH   PUBLIC    EDATA    FLOAT     x_t_float
      000009FEH   PUBLIC    EDATA    INT       active_submenu
      00000A00H   PUBLIC    EDATA    INT       main_menu_selection
      00000A02H   PUBLIC    EDATA    BYTE      key_value_test
      00000A03H   PUBLIC    EDATA    FLOAT     x_t_int
      00000C86H   PUBLIC    EDATA    BYTE      ?display_motor?BYTE
      000000D0H   SFRSYM    DATA     BYTE      PSW
      0000009DH   SFRSYM    DATA     BYTE      IRCBAND
      00000097H   SFRSYM    DATA     BYTE      AUXR2
      000000EFH   SFRSYM    DATA     BYTE      AUXINTIF
      000000FDH   SFRSYM    DATA     BYTE      S4CON
      000000ACH   SFRSYM    DATA     BYTE      S3CON
      0000009AH   SFRSYM    DATA     BYTE      S2CON
L251 LINKER/LOCATER V4.66.93.0                                                        06/21/2025  18:27:27  PAGE 81


      000000B7H   SFRSYM    DATA     BYTE      IPH
      000000CDH   SFRSYM    DATA     BYTE      SPSTAT
      000000DDH   SFRSYM    DATA     BYTE      T4T3M
      000000C1H   SFRSYM    DATA     BYTE      WDT_CONTR
      000000DFH   SFRSYM    DATA     BYTE      IP3
      000000F4H   SFRSYM    DATA     BYTE      USBCON
      000000B5H   SFRSYM    DATA     BYTE      IP2
      000000FFH   SFRSYM    DATA     BYTE      RSTCFG
      000000F9H   SFRSYM    DATA     BYTE      LINICR
      0000008EH   SFRSYM    DATA     BYTE      AUXR
      000000AFH   SFRSYM    DATA     BYTE      IE2
      00000088H   SFRSYM    DATA     BYTE      TCON
      00000098H   SFRSYM    DATA     BYTE      SCON
      000000F1H   SFRSYM    DATA     BYTE      CANICR
      00000087H   SFRSYM    DATA     BYTE      PCON
      000000BCH   SFRSYM    DATA     BYTE      ADC_CONTR
      000000E7H   SFRSYM    DATA     BYTE      CMPCR2
      000000E6H   SFRSYM    DATA     BYTE      CMPCR1
      000000B8H   SFRSYM    DATA     BYTE      IP
      0000008FH   SFRSYM    DATA     BYTE      INTCLKO
      000000EEH   SFRSYM    DATA     BYTE      IP3H
      000000B6H   SFRSYM    DATA     BYTE      IP2H
      000000A8H   SFRSYM    DATA     BYTE      IE
      000000BBH   SFRSYM    DATA     BYTE      P_SW3
      000000BAH   SFRSYM    DATA     BYTE      P_SW2
      000000A2H   SFRSYM    DATA     BYTE      P_SW1
      000000CEH   SFRSYM    DATA     BYTE      SPCTL
      000000F8H   SFRSYM    DATA     BYTE      P7
      000000E8H   SFRSYM    DATA     BYTE      P6
      000000C8H   SFRSYM    DATA     BYTE      P5
      000000C0H   SFRSYM    DATA     BYTE      P4
      000000B0H   SFRSYM    DATA     BYTE      P3
      000000A0H   SFRSYM    DATA     BYTE      P2
      00000090H   SFRSYM    DATA     BYTE      P1
      00000080H   SFRSYM    DATA     BYTE      P0

      00FF64CBH   BLOCK     CODE     ---       LVL=0
      00000C86H   SYMBOL    EDATA    ---       sptr
      00000C8AH   SYMBOL    EDATA    FLOAT     speed_now
      00000C8EH   SYMBOL    EDATA    WORD      pwm_duty
      00000C90H   SYMBOL    EDATA    BYTE      key_press
      00000C91H   SYMBOL    EDATA    BYTE      dir_id
      00FF64D7H   BLOCK     CODE     NEAR LAB  LVL=1
      00000A07H   SYMBOL    EDATA    BYTE      key_mode_local
      ---         BLOCKEND  ---      ---       LVL=1
      00FF64CBH   LINE      CODE     ---       #8
      00FF64D7H   LINE      CODE     ---       #9
      00FF64D7H   LINE      CODE     ---       #12
      00FF64E0H   LINE      CODE     ---       #13
      00FF64E7H   LINE      CODE     ---       #14
      00FF64F4H   LINE      CODE     ---       #15
      00FF6503H   LINE      CODE     ---       #16
      00FF6503H   LINE      CODE     ---       #19
      00FF6511H   LINE      CODE     ---       #20
      00FF6511H   LINE      CODE     ---       #21
      00FF652FH   LINE      CODE     ---       #22
      00FF6531H   LINE      CODE     ---       #23
      00FF6531H   LINE      CODE     ---       #24
      00FF6551H   LINE      CODE     ---       #25
      00FF6553H   LINE      CODE     ---       #26
      00FF6553H   LINE      CODE     ---       #27
      00FF6575H   LINE      CODE     ---       #28
      00FF6575H   LINE      CODE     ---       #29
      00FF6575H   LINE      CODE     ---       #30
      00FF6575H   LINE      CODE     ---       #31
L251 LINKER/LOCATER V4.66.93.0                                                        06/21/2025  18:27:27  PAGE 82


      00FF6575H   LINE      CODE     ---       #34
      00FF657EH   LINE      CODE     ---       #35
      00FF658FH   LINE      CODE     ---       #37
      00FF659EH   LINE      CODE     ---       #41
      00FF65BAH   LINE      CODE     ---       #42
      00FF65CDH   LINE      CODE     ---       #43
      00FF65F3H   LINE      CODE     ---       #45
      00FF6611H   LINE      CODE     ---       #46
      00FF6624H   LINE      CODE     ---       #47
      00FF664AH   LINE      CODE     ---       #49
      00FF666AH   LINE      CODE     ---       #50
      00FF667DH   LINE      CODE     ---       #51
      00FF66A3H   LINE      CODE     ---       #54
      00FF66C3H   LINE      CODE     ---       #55
      00FF66D6H   LINE      CODE     ---       #57
      00FF66F6H   LINE      CODE     ---       #58
      00FF6709H   LINE      CODE     ---       #60
      00FF6716H   LINE      CODE     ---       #61
      00FF6729H   LINE      CODE     ---       #63
      00FF673EH   LINE      CODE     ---       #64
      00FF6751H   LINE      CODE     ---       #66
      00FF6776H   LINE      CODE     ---       #67
      00FF6789H   LINE      CODE     ---       #68
      ---         BLOCKEND  ---      ---       LVL=0

      00FF4A21H   BLOCK     CODE     ---       LVL=0
      00000A08H   SYMBOL    EDATA    BYTE      key_mode
      00000EBDH   SYMBOL    EDATA    BYTE      key_value_test
      00FF4A21H   LINE      CODE     ---       #72
      00FF4A21H   LINE      CODE     ---       #73
      00FF4A21H   LINE      CODE     ---       #77
      00FF4A2CH   LINE      CODE     ---       #79
      00FF4A31H   LINE      CODE     ---       #80
      00FF4A38H   LINE      CODE     ---       #81
      00FF4A45H   LINE      CODE     ---       #82
      00FF4A54H   LINE      CODE     ---       #83
      00FF4A54H   LINE      CODE     ---       #85
      00FF4A74H   LINE      CODE     ---       #86
      00FF4A74H   LINE      CODE     ---       #87
      00FF4A92H   LINE      CODE     ---       #88
      00FF4A95H   LINE      CODE     ---       #89
      00FF4A95H   LINE      CODE     ---       #90
      00FF4AB3H   LINE      CODE     ---       #91
      00FF4AB6H   LINE      CODE     ---       #92
      00FF4AB6H   LINE      CODE     ---       #93
      00FF4AD4H   LINE      CODE     ---       #94
      00FF4AD6H   LINE      CODE     ---       #95
      00FF4AD6H   LINE      CODE     ---       #96
      00FF4AFFH   LINE      CODE     ---       #97
      00FF4B01H   LINE      CODE     ---       #98
      00FF4B01H   LINE      CODE     ---       #99
      00FF4B1FH   LINE      CODE     ---       #100
      00FF4B21H   LINE      CODE     ---       #101
      00FF4B21H   LINE      CODE     ---       #102
      00FF4B3FH   LINE      CODE     ---       #103
      00FF4B3FH   LINE      CODE     ---       #104
      00FF4B3FH   LINE      CODE     ---       #105
      00FF4B3FH   LINE      CODE     ---       #106
      00FF4B3FH   LINE      CODE     ---       #109
      00FF4B4EH   LINE      CODE     ---       #110
      00FF4B74H   LINE      CODE     ---       #113
      00FF4B89H   LINE      CODE     ---       #114
      00FF4B9CH   LINE      CODE     ---       #115
      00FF4BCDH   LINE      CODE     ---       #117
      00FF4BE2H   LINE      CODE     ---       #118
L251 LINKER/LOCATER V4.66.93.0                                                        06/21/2025  18:27:27  PAGE 83


      00FF4BF5H   LINE      CODE     ---       #119
      00FF4C26H   LINE      CODE     ---       #121
      00FF4C3BH   LINE      CODE     ---       #122
      00FF4C4EH   LINE      CODE     ---       #123
      00FF4C7FH   LINE      CODE     ---       #125
      00FF4C94H   LINE      CODE     ---       #126
      00FF4CA7H   LINE      CODE     ---       #127
      00FF4CD8H   LINE      CODE     ---       #129
      00FF4CEDH   LINE      CODE     ---       #130
      00FF4D00H   LINE      CODE     ---       #131
      00FF4D31H   LINE      CODE     ---       #133
      00FF4D46H   LINE      CODE     ---       #134
      00FF4D59H   LINE      CODE     ---       #135
      00FF4D8AH   LINE      CODE     ---       #137
      00FF4D9FH   LINE      CODE     ---       #138
      00FF4DB2H   LINE      CODE     ---       #140
      00FF4DC7H   LINE      CODE     ---       #141
      00FF4DDAH   LINE      CODE     ---       #142
      ---         BLOCKEND  ---      ---       LVL=0

      00FF5193H   BLOCK     CODE     ---       LVL=0
      00000A09H   SYMBOL    EDATA    BYTE      key_mode
      00000EBEH   SYMBOL    EDATA    BYTE      key_value_test
      00FF5193H   LINE      CODE     ---       #148
      00FF5193H   LINE      CODE     ---       #149
      00FF5193H   LINE      CODE     ---       #154
      00FF519EH   LINE      CODE     ---       #156
      00FF51A3H   LINE      CODE     ---       #157
      00FF51AAH   LINE      CODE     ---       #158
      00FF51B7H   LINE      CODE     ---       #159
      00FF51C6H   LINE      CODE     ---       #160
      00FF51C6H   LINE      CODE     ---       #162
      00FF51E0H   LINE      CODE     ---       #163
      00FF51E0H   LINE      CODE     ---       #164
      00FF51FEH   LINE      CODE     ---       #165
      00FF5201H   LINE      CODE     ---       #166
      00FF5201H   LINE      CODE     ---       #167
      00FF521FH   LINE      CODE     ---       #168
      00FF5221H   LINE      CODE     ---       #169
      00FF5221H   LINE      CODE     ---       #170
      00FF523FH   LINE      CODE     ---       #171
      00FF5241H   LINE      CODE     ---       #172
      00FF5241H   LINE      CODE     ---       #173
      00FF526AH   LINE      CODE     ---       #174
      00FF526CH   LINE      CODE     ---       #175
      00FF526CH   LINE      CODE     ---       #176
      00FF528AH   LINE      CODE     ---       #177
      00FF528AH   LINE      CODE     ---       #178
      00FF528AH   LINE      CODE     ---       #179
      00FF528AH   LINE      CODE     ---       #180
      00FF528AH   LINE      CODE     ---       #183
      00FF5299H   LINE      CODE     ---       #184
      00FF52BFH   LINE      CODE     ---       #186
      00FF52D4H   LINE      CODE     ---       #187
      00FF52E7H   LINE      CODE     ---       #188
      00FF530DH   LINE      CODE     ---       #190
      00FF5322H   LINE      CODE     ---       #191
      00FF5335H   LINE      CODE     ---       #192
      00FF535BH   LINE      CODE     ---       #194
      00FF5370H   LINE      CODE     ---       #195
      00FF5383H   LINE      CODE     ---       #196
      00FF53A9H   LINE      CODE     ---       #198
      00FF53BEH   LINE      CODE     ---       #199
      00FF53D1H   LINE      CODE     ---       #200
      00FF53F7H   LINE      CODE     ---       #202
L251 LINKER/LOCATER V4.66.93.0                                                        06/21/2025  18:27:27  PAGE 84


      00FF540CH   LINE      CODE     ---       #203
      00FF541FH   LINE      CODE     ---       #204
      00FF5445H   LINE      CODE     ---       #206
      00FF545AH   LINE      CODE     ---       #207
      00FF546DH   LINE      CODE     ---       #209
      00FF5482H   LINE      CODE     ---       #210
      00FF5495H   LINE      CODE     ---       #212
      00FF54DFH   LINE      CODE     ---       #216
      00FF553AH   LINE      CODE     ---       #223
      ---         BLOCKEND  ---      ---       LVL=0

      00FF6E88H   BLOCK     CODE     ---       LVL=0
      00000A0AH   SYMBOL    EDATA    BYTE      key_mode
      00000EBFH   SYMBOL    EDATA    BYTE      key_value_test
      00FF6E88H   LINE      CODE     ---       #230
      00FF6E88H   LINE      CODE     ---       #231
      00FF6E88H   LINE      CODE     ---       #235
      00FF6E93H   LINE      CODE     ---       #238
      00FF6E98H   LINE      CODE     ---       #239
      00FF6E9FH   LINE      CODE     ---       #240
      00FF6EACH   LINE      CODE     ---       #241
      00FF6EBBH   LINE      CODE     ---       #242
      00FF6EBBH   LINE      CODE     ---       #245
      00FF6EC5H   LINE      CODE     ---       #246
      00FF6EC5H   LINE      CODE     ---       #247
      00FF6EE3H   LINE      CODE     ---       #248
      00FF6EE5H   LINE      CODE     ---       #249
      00FF6EE5H   LINE      CODE     ---       #250
      00FF6F03H   LINE      CODE     ---       #251
      00FF6F03H   LINE      CODE     ---       #252
      00FF6F03H   LINE      CODE     ---       #253
      00FF6F03H   LINE      CODE     ---       #254
      00FF6F03H   LINE      CODE     ---       #257
      00FF6F12H   LINE      CODE     ---       #258
      00FF6F38H   LINE      CODE     ---       #261
      00FF6F4DH   LINE      CODE     ---       #262
      00FF6F60H   LINE      CODE     ---       #263
      00FF6F91H   LINE      CODE     ---       #266
      00FF6FA6H   LINE      CODE     ---       #267
      00FF6FB9H   LINE      CODE     ---       #268
      00FF6FEAH   LINE      CODE     ---       #271
      00FF6FFFH   LINE      CODE     ---       #272
      00FF7012H   LINE      CODE     ---       #275
      00FF7027H   LINE      CODE     ---       #276
      00FF703AH   LINE      CODE     ---       #279
      00FF704BH   LINE      CODE     ---       #280
      00FF707CH   LINE      CODE     ---       #281
      ---         BLOCKEND  ---      ---       LVL=0
      0000093FH   SYMBOL    EDATA    ---       buffer
      0000098BH   SYMBOL    EDATA    DWORD     magic
      0000098FH   SYMBOL    EDATA    ---       buffer
      000009DBH   SYMBOL    EDATA    DWORD     magic
      00000020H.2 SYMBOL    BIT      BIT       has_valid_data

      00FF6A3CH   BLOCK     CODE     ---       LVL=0
      00FF6A3CH   LINE      CODE     ---       #431
      00FF6A3CH   LINE      CODE     ---       #434
      00FF6A4BH   LINE      CODE     ---       #435
      00FF6A65H   LINE      CODE     ---       #438
      00FF6A76H   LINE      CODE     ---       #439
      00FF6A92H   LINE      CODE     ---       #442
      00FF6AA3H   LINE      CODE     ---       #443
      00FF6ABFH   LINE      CODE     ---       #446
      00FF6AD0H   LINE      CODE     ---       #447
      00FF6AECH   LINE      CODE     ---       #450
L251 LINKER/LOCATER V4.66.93.0                                                        06/21/2025  18:27:27  PAGE 85


      00FF6AFDH   LINE      CODE     ---       #451
      00FF6B19H   LINE      CODE     ---       #454
      00FF6B2AH   LINE      CODE     ---       #455
      00FF6B62H   LINE      CODE     ---       #458
      00FF6B73H   LINE      CODE     ---       #459
      00FF6B8AH   LINE      CODE     ---       #462
      00FF6B9BH   LINE      CODE     ---       #463
      00FF6BB2H   LINE      CODE     ---       #464
      00FF6BC5H   LINE      CODE     ---       #465
      00FF6BDBH   LINE      CODE     ---       #467
      00FF6BECH   LINE      CODE     ---       #468
      00FF6C03H   LINE      CODE     ---       #469
      00FF6C16H   LINE      CODE     ---       #470
      00FF6C2CH   LINE      CODE     ---       #472
      00FF6C3FH   LINE      CODE     ---       #473
      00FF6C54H   LINE      CODE     ---       #477
      00FF6C5FH   LINE      CODE     ---       #478
      00FF6C79H   LINE      CODE     ---       #479
      00FF6C81H   LINE      CODE     ---       #484
      ---         BLOCKEND  ---      ---       LVL=0

      00FF7270H   BLOCK     CODE     ---       LVL=0
      00000A0BH   SYMBOL    EDATA    BYTE      key_mode
      00000EC0H   SYMBOL    EDATA    BYTE      key_value_test
      00FF7270H   LINE      CODE     ---       #489
      00FF7270H   LINE      CODE     ---       #493
      00FF727BH   LINE      CODE     ---       #495
      00FF7280H   LINE      CODE     ---       #496
      00FF7287H   LINE      CODE     ---       #497
      00FF7294H   LINE      CODE     ---       #498
      00FF72A3H   LINE      CODE     ---       #499
      00FF72AAH   LINE      CODE     ---       #500
      00FF72AAH   LINE      CODE     ---       #502
      00FF72B8H   LINE      CODE     ---       #504
      00FF72B8H   LINE      CODE     ---       #505
      00FF72C9H   LINE      CODE     ---       #506
      00FF72CBH   LINE      CODE     ---       #507
      00FF72CBH   LINE      CODE     ---       #508
      00FF72DEH   LINE      CODE     ---       #509
      00FF72E0H   LINE      CODE     ---       #510
      00FF72E0H   LINE      CODE     ---       #511
      00FF7309H   LINE      CODE     ---       #512
      00FF7309H   LINE      CODE     ---       #513
      00FF7309H   LINE      CODE     ---       #514
      00FF7309H   LINE      CODE     ---       #515
      00FF7309H   LINE      CODE     ---       #519
      00FF731CH   LINE      CODE     ---       #520
      00FF732DH   LINE      CODE     ---       #521
      00FF735AH   LINE      CODE     ---       #523
      00FF736FH   LINE      CODE     ---       #524
      00FF7382H   LINE      CODE     ---       #525
      00FF73B3H   LINE      CODE     ---       #527
      00FF73C8H   LINE      CODE     ---       #528
      00FF73DBH   LINE      CODE     ---       #529
      00FF740CH   LINE      CODE     ---       #533
      00FF7434H   LINE      CODE     ---       #534
      ---         BLOCKEND  ---      ---       LVL=0

      00FF4650H   BLOCK     CODE     ---       LVL=0
      00000EC1H   SYMBOL    EDATA    BYTE      key_press
      00FF4654H   BLOCK     CODE     NEAR LAB  LVL=1
      00000A0CH   SYMBOL    EDATA    BYTE      key_mode
      ---         BLOCKEND  ---      ---       LVL=1
      00FF4650H   LINE      CODE     ---       #537
      00FF4654H   LINE      CODE     ---       #544
L251 LINKER/LOCATER V4.66.93.0                                                        06/21/2025  18:27:27  PAGE 86


      00FF4659H   LINE      CODE     ---       #545
      00FF4660H   LINE      CODE     ---       #546
      00FF466DH   LINE      CODE     ---       #547
      00FF467CH   LINE      CODE     ---       #548
      00FF467CH   LINE      CODE     ---       #551
      00FF46A5H   LINE      CODE     ---       #552
      00FF46A5H   LINE      CODE     ---       #553
      00FF46C3H   LINE      CODE     ---       #554
      00FF46C6H   LINE      CODE     ---       #555
      00FF46C6H   LINE      CODE     ---       #556
      00FF46E4H   LINE      CODE     ---       #557
      00FF46E7H   LINE      CODE     ---       #558
      00FF46E7H   LINE      CODE     ---       #559
      00FF4710H   LINE      CODE     ---       #560
      00FF4713H   LINE      CODE     ---       #561
      00FF4713H   LINE      CODE     ---       #562
      00FF473CH   LINE      CODE     ---       #563
      00FF473EH   LINE      CODE     ---       #564
      00FF473EH   LINE      CODE     ---       #565
      00FF4767H   LINE      CODE     ---       #566
      00FF4767H   LINE      CODE     ---       #567
      00FF4790H   LINE      CODE     ---       #568
      00FF4790H   LINE      CODE     ---       #569
      00FF47B9H   LINE      CODE     ---       #571
      00FF47B9H   LINE      CODE     ---       #572
      00FF47B9H   LINE      CODE     ---       #573
      00FF47B9H   LINE      CODE     ---       #576
      00FF47CCH   LINE      CODE     ---       #577
      00FF47DDH   LINE      CODE     ---       #578
      00FF480AH   LINE      CODE     ---       #580
      00FF481FH   LINE      CODE     ---       #581
      00FF4832H   LINE      CODE     ---       #582
      00FF4863H   LINE      CODE     ---       #584
      00FF4878H   LINE      CODE     ---       #585
      00FF488BH   LINE      CODE     ---       #586
      00FF48BCH   LINE      CODE     ---       #588
      00FF48D1H   LINE      CODE     ---       #589
      00FF48E4H   LINE      CODE     ---       #590
      00FF4915H   LINE      CODE     ---       #592
      00FF492AH   LINE      CODE     ---       #593
      00FF493DH   LINE      CODE     ---       #594
      00FF496EH   LINE      CODE     ---       #596
      00FF4983H   LINE      CODE     ---       #597
      00FF4996H   LINE      CODE     ---       #598
      00FF49C7H   LINE      CODE     ---       #600
      00FF49DCH   LINE      CODE     ---       #601
      00FF49EFH   LINE      CODE     ---       #602
      00FF4A20H   LINE      CODE     ---       #605
      ---         BLOCKEND  ---      ---       LVL=0
      00000EACH   SYMBOL    EDATA    INT       i

      ---         MODULE    ---      ---       Motor
      00FF906CH   PUBLIC    CODE     ---       limit_function
      00000A37H   PUBLIC    EDATA    FLOAT     l_speed_now
      00000A3BH   PUBLIC    EDATA    FLOAT     r_speed_now
      00000A3FH   PUBLIC    EDATA    FLOAT     l_pwm
      00000A43H   PUBLIC    EDATA    FLOAT     r_pwm
      00000A47H   PUBLIC    EDATA    FLOAT     l_encoder
      00000A4BH   PUBLIC    EDATA    FLOAT     r_encoder
      00000A4FH   PUBLIC    EDATA    FLOAT     l_encoder_last
      00000A53H   PUBLIC    EDATA    FLOAT     speed_now
      00000A57H   PUBLIC    EDATA    FLOAT     r_encoder_last
      00000A5BH   PUBLIC    EDATA    FLOAT     motor_inc
      00000C92H   PUBLIC    EDATA    BYTE      ?limit_function?BYTE
      000000D0H   SFRSYM    DATA     BYTE      PSW
L251 LINKER/LOCATER V4.66.93.0                                                        06/21/2025  18:27:27  PAGE 87


      0000009DH   SFRSYM    DATA     BYTE      IRCBAND
      00000097H   SFRSYM    DATA     BYTE      AUXR2
      000000EFH   SFRSYM    DATA     BYTE      AUXINTIF
      000000FDH   SFRSYM    DATA     BYTE      S4CON
      000000ACH   SFRSYM    DATA     BYTE      S3CON
      0000009AH   SFRSYM    DATA     BYTE      S2CON
      000000B7H   SFRSYM    DATA     BYTE      IPH
      000000CDH   SFRSYM    DATA     BYTE      SPSTAT
      000000DDH   SFRSYM    DATA     BYTE      T4T3M
      000000C1H   SFRSYM    DATA     BYTE      WDT_CONTR
      000000DFH   SFRSYM    DATA     BYTE      IP3
      000000F4H   SFRSYM    DATA     BYTE      USBCON
      000000B5H   SFRSYM    DATA     BYTE      IP2
      000000FFH   SFRSYM    DATA     BYTE      RSTCFG
      000000F9H   SFRSYM    DATA     BYTE      LINICR
      0000008EH   SFRSYM    DATA     BYTE      AUXR
      000000AFH   SFRSYM    DATA     BYTE      IE2
      00000088H   SFRSYM    DATA     BYTE      TCON
      00000098H   SFRSYM    DATA     BYTE      SCON
      000000F1H   SFRSYM    DATA     BYTE      CANICR
      00000087H   SFRSYM    DATA     BYTE      PCON
      000000BCH   SFRSYM    DATA     BYTE      ADC_CONTR
      000000E7H   SFRSYM    DATA     BYTE      CMPCR2
      000000E6H   SFRSYM    DATA     BYTE      CMPCR1
      000000B8H   SFRSYM    DATA     BYTE      IP
      0000008FH   SFRSYM    DATA     BYTE      INTCLKO
      000000EEH   SFRSYM    DATA     BYTE      IP3H
      000000B6H   SFRSYM    DATA     BYTE      IP2H
      000000A8H   SFRSYM    DATA     BYTE      IE
      000000BBH   SFRSYM    DATA     BYTE      P_SW3
      000000BAH   SFRSYM    DATA     BYTE      P_SW2
      000000A2H   SFRSYM    DATA     BYTE      P_SW1
      000000CEH   SFRSYM    DATA     BYTE      SPCTL
      000000F8H   SFRSYM    DATA     BYTE      P7
      000000E8H   SFRSYM    DATA     BYTE      P6
      000000C8H   SFRSYM    DATA     BYTE      P5
      000000C0H   SFRSYM    DATA     BYTE      P4
      000000B0H   SFRSYM    DATA     BYTE      P3
      000000A0H   SFRSYM    DATA     BYTE      P2
      00000090H   SFRSYM    DATA     BYTE      P1
      00000080H   SFRSYM    DATA     BYTE      P0

      00FF906CH   BLOCK     CODE     ---       LVL=0
      00000C92H   SYMBOL    EDATA    FLOAT     value
      00000C96H   SYMBOL    EDATA    FLOAT     min_val
      00000C9AH   SYMBOL    EDATA    FLOAT     max_val
      00FF906CH   LINE      CODE     ---       #41
      00FF9074H   LINE      CODE     ---       #42
      00FF9081H   LINE      CODE     ---       #43
      00FF9087H   LINE      CODE     ---       #44
      00FF9094H   LINE      CODE     ---       #45
      00FF909AH   LINE      CODE     ---       #46
      00FF909AH   LINE      CODE     ---       #47
      00FF909EH   LINE      CODE     ---       #48
      00FF909EH   LINE      CODE     ---       #49
      ---         BLOCKEND  ---      ---       LVL=0

      ---         MODULE    ---      ---       PID
      00FF7435H   PUBLIC    CODE     ---       IncPID
      000004ECH   PUBLIC    EDATA    ---       ang_pid
      00000548H   PUBLIC    EDATA    ---       Gyro_PID
      000005A4H   PUBLIC    EDATA    ---       Turn_PID
      00000600H   PUBLIC    EDATA    ---       L_pid
      0000065CH   PUBLIC    EDATA    ---       R_pid
      00000B94H   PUBLIC    EDATA    BYTE      ?IncPID?BYTE
L251 LINKER/LOCATER V4.66.93.0                                                        06/21/2025  18:27:27  PAGE 88


      00000C9EH   PUBLIC    EDATA    BYTE      ?PositionPID?BYTE
      00000CAAH   PUBLIC    EDATA    BYTE      ?gyro_lowpass_filter?BYTE
      00000BA4H   PUBLIC    EDATA    BYTE      ?GyroPositionPID?BYTE
      000000D0H   SFRSYM    DATA     BYTE      PSW
      0000009DH   SFRSYM    DATA     BYTE      IRCBAND
      00000097H   SFRSYM    DATA     BYTE      AUXR2
      000000EFH   SFRSYM    DATA     BYTE      AUXINTIF
      000000FDH   SFRSYM    DATA     BYTE      S4CON
      000000ACH   SFRSYM    DATA     BYTE      S3CON
      0000009AH   SFRSYM    DATA     BYTE      S2CON
      000000B7H   SFRSYM    DATA     BYTE      IPH
      000000CDH   SFRSYM    DATA     BYTE      SPSTAT
      000000DDH   SFRSYM    DATA     BYTE      T4T3M
      000000C1H   SFRSYM    DATA     BYTE      WDT_CONTR
      000000DFH   SFRSYM    DATA     BYTE      IP3
      000000F4H   SFRSYM    DATA     BYTE      USBCON
      000000B5H   SFRSYM    DATA     BYTE      IP2
      000000FFH   SFRSYM    DATA     BYTE      RSTCFG
      000000F9H   SFRSYM    DATA     BYTE      LINICR
      0000008EH   SFRSYM    DATA     BYTE      AUXR
      000000AFH   SFRSYM    DATA     BYTE      IE2
      00000088H   SFRSYM    DATA     BYTE      TCON
      00000098H   SFRSYM    DATA     BYTE      SCON
      000000F1H   SFRSYM    DATA     BYTE      CANICR
      00000087H   SFRSYM    DATA     BYTE      PCON
      000000BCH   SFRSYM    DATA     BYTE      ADC_CONTR
      000000E7H   SFRSYM    DATA     BYTE      CMPCR2
      000000E6H   SFRSYM    DATA     BYTE      CMPCR1
      000000B8H   SFRSYM    DATA     BYTE      IP
      0000008FH   SFRSYM    DATA     BYTE      INTCLKO
      000000EEH   SFRSYM    DATA     BYTE      IP3H
      000000B6H   SFRSYM    DATA     BYTE      IP2H
      000000A8H   SFRSYM    DATA     BYTE      IE
      000000BBH   SFRSYM    DATA     BYTE      P_SW3
      000000BAH   SFRSYM    DATA     BYTE      P_SW2
      000000A2H   SFRSYM    DATA     BYTE      P_SW1
      000000CEH   SFRSYM    DATA     BYTE      SPCTL
      000000F8H   SFRSYM    DATA     BYTE      P7
      000000E8H   SFRSYM    DATA     BYTE      P6
      000000C8H   SFRSYM    DATA     BYTE      P5
      000000C0H   SFRSYM    DATA     BYTE      P4
      000000B0H   SFRSYM    DATA     BYTE      P3
      000000A0H   SFRSYM    DATA     BYTE      P2
      00000090H   SFRSYM    DATA     BYTE      P1
      00000080H   SFRSYM    DATA     BYTE      P0

      00FF7435H   BLOCK     CODE     ---       LVL=0
      00000B94H   SYMBOL    EDATA    FLOAT     Encoder
      00000B98H   SYMBOL    EDATA    FLOAT     Target
      00000B9CH   SYMBOL    EDATA    ---       sptr
      00FF743DH   BLOCK     CODE     NEAR LAB  LVL=1
      00000BA0H   SYMBOL    EDATA    FLOAT     delta_pwm
      ---         BLOCKEND  ---      ---       LVL=1
      00FF7435H   LINE      CODE     ---       #19
      00FF743DH   LINE      CODE     ---       #20
      00FF743DH   LINE      CODE     ---       #24
      00FF7450H   LINE      CODE     ---       #25
      00FF7463H   LINE      CODE     ---       #28
      00FF7495H   LINE      CODE     ---       #32
      00FF74D7H   LINE      CODE     ---       #34
      00FF7507H   LINE      CODE     ---       #36
      00FF756AH   LINE      CODE     ---       #39
      00FF75A1H   LINE      CODE     ---       #42
      00FF75BFH   LINE      CODE     ---       #43
      00FF75DDH   LINE      CODE     ---       #45
L251 LINKER/LOCATER V4.66.93.0                                                        06/21/2025  18:27:27  PAGE 89


      00FF75E1H   LINE      CODE     ---       #46
      ---         BLOCKEND  ---      ---       LVL=0
      00000C9EH   SYMBOL    EDATA    FLOAT     Encoder
      00000CA2H   SYMBOL    EDATA    FLOAT     Target
      00000CA6H   SYMBOL    EDATA    ---       sptr
      00000CAAH   SYMBOL    EDATA    FLOAT     new_value
      00000CAEH   SYMBOL    EDATA    FLOAT     old_value
      00000CB2H   SYMBOL    EDATA    FLOAT     alpha
      00000BA4H   SYMBOL    EDATA    FLOAT     gyro_now_raw
      00000BA8H   SYMBOL    EDATA    FLOAT     Target
      00000BACH   SYMBOL    EDATA    ---       sptr
      000006B8H   SYMBOL    EDATA    FLOAT     gyro_filtered
      00000BB0H   SYMBOL    EDATA    FLOAT     deadzone
      00000CB6H   SYMBOL    EDATA    FLOAT     turn_error
      00000CBAH   SYMBOL    EDATA    ---       sptr
      00000CBEH   SYMBOL    EDATA    FLOAT     delta_output

      ---         MODULE    ---      ---       vofa
      00FF88A6H   PUBLIC    CODE     ---       USART_PID_Adjust
      00FF5F20H   PUBLIC    CODE     ---       Get_Data
      00000021H   PUBLIC    EDATA    ---       DataBuff
      000000E9H   PUBLIC    EDATA    FLOAT     data_Get
      000000EDH   PUBLIC    EDATA    ---       RxBuffer
      000000EEH   PUBLIC    EDATA    ---       vofa_send_data
      000004EAH   PUBLIC    EDATA    WORD      RxLine
      000000D0H   SFRSYM    DATA     BYTE      PSW
      0000009DH   SFRSYM    DATA     BYTE      IRCBAND
      00000097H   SFRSYM    DATA     BYTE      AUXR2
      000000EFH   SFRSYM    DATA     BYTE      AUXINTIF
      000000FDH   SFRSYM    DATA     BYTE      S4CON
      000000ACH   SFRSYM    DATA     BYTE      S3CON
      0000009AH   SFRSYM    DATA     BYTE      S2CON
      000000B7H   SFRSYM    DATA     BYTE      IPH
      000000CDH   SFRSYM    DATA     BYTE      SPSTAT
      000000DDH   SFRSYM    DATA     BYTE      T4T3M
      000000C1H   SFRSYM    DATA     BYTE      WDT_CONTR
      000000DFH   SFRSYM    DATA     BYTE      IP3
      000000F4H   SFRSYM    DATA     BYTE      USBCON
      000000B5H   SFRSYM    DATA     BYTE      IP2
      000000FFH   SFRSYM    DATA     BYTE      RSTCFG
      000000F9H   SFRSYM    DATA     BYTE      LINICR
      0000008EH   SFRSYM    DATA     BYTE      AUXR
      000000AFH   SFRSYM    DATA     BYTE      IE2
      00000088H   SFRSYM    DATA     BYTE      TCON
      00000098H   SFRSYM    DATA     BYTE      SCON
      000000F1H   SFRSYM    DATA     BYTE      CANICR
      00000087H   SFRSYM    DATA     BYTE      PCON
      000000BCH   SFRSYM    DATA     BYTE      ADC_CONTR
      000000E7H   SFRSYM    DATA     BYTE      CMPCR2
      000000E6H   SFRSYM    DATA     BYTE      CMPCR1
      000000B8H   SFRSYM    DATA     BYTE      IP
      0000008FH   SFRSYM    DATA     BYTE      INTCLKO
      000000EEH   SFRSYM    DATA     BYTE      IP3H
      000000B6H   SFRSYM    DATA     BYTE      IP2H
      000000A8H   SFRSYM    DATA     BYTE      IE
      000000BBH   SFRSYM    DATA     BYTE      P_SW3
      000000BAH   SFRSYM    DATA     BYTE      P_SW2
      000000A2H   SFRSYM    DATA     BYTE      P_SW1
      000000CEH   SFRSYM    DATA     BYTE      SPCTL
      000000F8H   SFRSYM    DATA     BYTE      P7
      000000E8H   SFRSYM    DATA     BYTE      P6
      000000C8H   SFRSYM    DATA     BYTE      P5
      000000C0H   SFRSYM    DATA     BYTE      P4
      000000B0H   SFRSYM    DATA     BYTE      P3
      000000A0H   SFRSYM    DATA     BYTE      P2
L251 LINKER/LOCATER V4.66.93.0                                                        06/21/2025  18:27:27  PAGE 90


      00000090H   SFRSYM    DATA     BYTE      P1
      00000080H   SFRSYM    DATA     BYTE      P0
      00FF0096H   SYMBOL    HCONST   ---       ?tpl?0001
      00FF009AH   SYMBOL    HCONST   ---       ?tpl?0002
      00000CC2H   SYMBOL    EDATA    FLOAT     f
      00000CC6H   SYMBOL    EDATA    ---       byte
      00000CCAH   SYMBOL    EDATA    ---       fl
      00000BB4H   SYMBOL    EDATA    ---       data_str
      00000BB8H   SYMBOL    EDATA    WORD      num
      00000BBAH   SYMBOL    EDATA    BYTE      i
      00000BBBH   SYMBOL    EDATA    ---       byte
      00000BBFH   SYMBOL    EDATA    ---       tail

      00FF5F20H   BLOCK     CODE     ---       LVL=0
      00000D66H   SYMBOL    EDATA    BYTE      data_Start_Num
      00000D67H   SYMBOL    EDATA    BYTE      data_End_Num
      00000D68H   SYMBOL    EDATA    BYTE      data_Num
      00000D69H   SYMBOL    EDATA    BYTE      minus_Flag
      00000D6AH   SYMBOL    EDATA    FLOAT     data_return
      00000D6EH   SYMBOL    EDATA    BYTE      i
      00FF5F20H   LINE      CODE     ---       #61
      00FF5F20H   LINE      CODE     ---       #62
      00FF5F20H   LINE      CODE     ---       #63
      00FF5F25H   LINE      CODE     ---       #64
      00FF5F2AH   LINE      CODE     ---       #65
      00FF5F2FH   LINE      CODE     ---       #66
      00FF5F34H   LINE      CODE     ---       #67
      00FF5F3AH   LINE      CODE     ---       #69
      00FF5F41H   LINE      CODE     ---       #71
      00FF5F65H   LINE      CODE     ---       #72
      00FF5F79H   LINE      CODE     ---       #74
      00FF5F89H   LINE      CODE     ---       #75
      00FF5F8BH   LINE      CODE     ---       #76
      00FF5FA2H   LINE      CODE     ---       #78
      00FF5FB6H   LINE      CODE     ---       #80
      00FF5FC2H   LINE      CODE     ---       #81
      00FF5FC8H   LINE      CODE     ---       #82
      00FF5FC8H   LINE      CODE     ---       #83
      00FF5FE0H   LINE      CODE     ---       #84
      00FF5FECH   LINE      CODE     ---       #86
      00FF6068H   LINE      CODE     ---       #88
      00FF606BH   LINE      CODE     ---       #89
      00FF6077H   LINE      CODE     ---       #91
      00FF6112H   LINE      CODE     ---       #93
      00FF6115H   LINE      CODE     ---       #94
      00FF6121H   LINE      CODE     ---       #96
      00FF61DFH   LINE      CODE     ---       #98
      00FF61DFH   LINE      CODE     ---       #99
      00FF61F3H   LINE      CODE     ---       #100
      00FF61F7H   LINE      CODE     ---       #101
      ---         BLOCKEND  ---      ---       LVL=0

      00FF88A6H   BLOCK     CODE     ---       LVL=0
      00FF88A6H   LINE      CODE     ---       #108
      00FF88A6H   LINE      CODE     ---       #110
      00FF88ADH   LINE      CODE     ---       #174
      00FF88BFH   LINE      CODE     ---       #175
      00FF88C9H   LINE      CODE     ---       #176
      00FF88DBH   LINE      CODE     ---       #177
      00FF88E5H   LINE      CODE     ---       #178
      00FF88F7H   LINE      CODE     ---       #179
      00FF8901H   LINE      CODE     ---       #180
      00FF8913H   LINE      CODE     ---       #181
      00FF891BH   LINE      CODE     ---       #196
      ---         BLOCKEND  ---      ---       LVL=0
L251 LINKER/LOCATER V4.66.93.0                                                        06/21/2025  18:27:27  PAGE 91



      ---         MODULE    ---      ---       element
      00FF8612H   PUBLIC    CODE     ---       straight_judge
      00000A87H   PUBLIC    EDATA    INT       temp_t
      00000A89H   PUBLIC    EDATA    WORD      flag_incir
      00000A8BH   PUBLIC    EDATA    BYTE      yuansu_flag
      00000A8CH   PUBLIC    EDATA    WORD      cir_angle_flag
      00000A8EH   PUBLIC    EDATA    BYTE      speed_ctrl_flag
      00000A8FH   PUBLIC    EDATA    WORD      temp_flag_speed
      00000A91H   PUBLIC    EDATA    WORD      hall_count
      00000A93H   PUBLIC    EDATA    WORD      hall_timer_count
      00000A95H   PUBLIC    EDATA    WORD      temp_flag
      00000A97H   PUBLIC    EDATA    BYTE      cir_flag
      00000A98H   PUBLIC    EDATA    BYTE      hall_triggered
      00000A99H   PUBLIC    EDATA    FLOAT     straight_err_threshold
      00000A9DH   PUBLIC    EDATA    BYTE      speed_strategy_active
      00000A9EH   PUBLIC    EDATA    FLOAT     straight_integral_threshold
      00000AA2H   PUBLIC    EDATA    CHAR      straight_flag
      00000AA3H   PUBLIC    EDATA    BYTE      encoder_sign
      000000D0H   SFRSYM    DATA     BYTE      PSW
      0000009DH   SFRSYM    DATA     BYTE      IRCBAND
      00000097H   SFRSYM    DATA     BYTE      AUXR2
      000000EFH   SFRSYM    DATA     BYTE      AUXINTIF
      000000FDH   SFRSYM    DATA     BYTE      S4CON
      000000ACH   SFRSYM    DATA     BYTE      S3CON
      0000009AH   SFRSYM    DATA     BYTE      S2CON
      000000B7H   SFRSYM    DATA     BYTE      IPH
      000000CDH   SFRSYM    DATA     BYTE      SPSTAT
      000000DDH   SFRSYM    DATA     BYTE      T4T3M
      000000C1H   SFRSYM    DATA     BYTE      WDT_CONTR
      000000DFH   SFRSYM    DATA     BYTE      IP3
      000000F4H   SFRSYM    DATA     BYTE      USBCON
      000000B5H   SFRSYM    DATA     BYTE      IP2
      000000FFH   SFRSYM    DATA     BYTE      RSTCFG
      000000F9H   SFRSYM    DATA     BYTE      LINICR
      0000008EH   SFRSYM    DATA     BYTE      AUXR
      000000AFH   SFRSYM    DATA     BYTE      IE2
      000000B0H.6 SFRSYM    DATA     BIT       P36
      00000088H   SFRSYM    DATA     BYTE      TCON
      00000098H   SFRSYM    DATA     BYTE      SCON
      000000F1H   SFRSYM    DATA     BYTE      CANICR
      00000087H   SFRSYM    DATA     BYTE      PCON
      000000BCH   SFRSYM    DATA     BYTE      ADC_CONTR
      000000E7H   SFRSYM    DATA     BYTE      CMPCR2
      000000E6H   SFRSYM    DATA     BYTE      CMPCR1
      000000B8H   SFRSYM    DATA     BYTE      IP
      0000008FH   SFRSYM    DATA     BYTE      INTCLKO
      000000EEH   SFRSYM    DATA     BYTE      IP3H
      000000B6H   SFRSYM    DATA     BYTE      IP2H
      000000A8H   SFRSYM    DATA     BYTE      IE
      000000BBH   SFRSYM    DATA     BYTE      P_SW3
      000000BAH   SFRSYM    DATA     BYTE      P_SW2
      000000A2H   SFRSYM    DATA     BYTE      P_SW1
      000000CEH   SFRSYM    DATA     BYTE      SPCTL
      000000F8H   SFRSYM    DATA     BYTE      P7
      000000E8H   SFRSYM    DATA     BYTE      P6
      000000C8H   SFRSYM    DATA     BYTE      P5
      000000C0H   SFRSYM    DATA     BYTE      P4
      000000B0H   SFRSYM    DATA     BYTE      P3
      000000A0H   SFRSYM    DATA     BYTE      P2
      00000090H   SFRSYM    DATA     BYTE      P1
      00000080H   SFRSYM    DATA     BYTE      P0
      00000AA4H   SYMBOL    EDATA    FLOAT     mot_inc_last_at_entry
      00000AA8H   SYMBOL    EDATA    BYTE      in_circle_integration

L251 LINKER/LOCATER V4.66.93.0                                                        06/21/2025  18:27:27  PAGE 92


      00FF8612H   BLOCK     CODE     ---       LVL=0
      00000DC8H   SYMBOL    EDATA    FLOAT     straight_err_threshold
      00000DCCH   SYMBOL    EDATA    FLOAT     straight_integral_threshold
      00FF8612H   LINE      CODE     ---       #209
      00FF861AH   LINE      CODE     ---       #212
      00FF862CH   LINE      CODE     ---       #214
      00FF863CH   LINE      CODE     ---       #216
      00FF8642H   LINE      CODE     ---       #217
      00FF8644H   LINE      CODE     ---       #220
      00FF8649H   LINE      CODE     ---       #221
      00FF864FH   LINE      CODE     ---       #222
      00FF864FH   LINE      CODE     ---       #224
      00FF865CH   LINE      CODE     ---       #226
      00FF8662H   LINE      CODE     ---       #227
      00FF8668H   LINE      CODE     ---       #228
      00FF8668H   LINE      CODE     ---       #232
      00FF8671H   LINE      CODE     ---       #234
      00FF868AH   LINE      CODE     ---       #236
      00FF868FH   LINE      CODE     ---       #237
      00FF8695H   LINE      CODE     ---       #238
      00FF869BH   LINE      CODE     ---       #239
      00FF86A0H   LINE      CODE     ---       #240
      00FF86A0H   LINE      CODE     ---       #242
      ---         BLOCKEND  ---      ---       LVL=0

      ---         MODULE    ---      ---       out_control
      00FF774BH   PUBLIC    CODE     ---       out_pwm
      00FF8198H   PUBLIC    CODE     ---       acquire_sensor_data
      000000D0H   SFRSYM    DATA     BYTE      PSW
      0000009DH   SFRSYM    DATA     BYTE      IRCBAND
      00000097H   SFRSYM    DATA     BYTE      AUXR2
      000000EFH   SFRSYM    DATA     BYTE      AUXINTIF
      000000FDH   SFRSYM    DATA     BYTE      S4CON
      000000ACH   SFRSYM    DATA     BYTE      S3CON
      0000009AH   SFRSYM    DATA     BYTE      S2CON
      000000B7H   SFRSYM    DATA     BYTE      IPH
      000000CDH   SFRSYM    DATA     BYTE      SPSTAT
      000000DDH   SFRSYM    DATA     BYTE      T4T3M
      000000C1H   SFRSYM    DATA     BYTE      WDT_CONTR
      000000DFH   SFRSYM    DATA     BYTE      IP3
      000000F4H   SFRSYM    DATA     BYTE      USBCON
      000000B5H   SFRSYM    DATA     BYTE      IP2
      000000FFH   SFRSYM    DATA     BYTE      RSTCFG
      000000F9H   SFRSYM    DATA     BYTE      LINICR
      0000008EH   SFRSYM    DATA     BYTE      AUXR
      000000AFH   SFRSYM    DATA     BYTE      IE2
      000000B0H.5 SFRSYM    DATA     BIT       P35
      000000C8H.3 SFRSYM    DATA     BIT       P53
      00000088H   SFRSYM    DATA     BYTE      TCON
      00000098H   SFRSYM    DATA     BYTE      SCON
      000000F1H   SFRSYM    DATA     BYTE      CANICR
      00000087H   SFRSYM    DATA     BYTE      PCON
      000000BCH   SFRSYM    DATA     BYTE      ADC_CONTR
      000000E7H   SFRSYM    DATA     BYTE      CMPCR2
      000000E6H   SFRSYM    DATA     BYTE      CMPCR1
      000000B8H   SFRSYM    DATA     BYTE      IP
      0000008FH   SFRSYM    DATA     BYTE      INTCLKO
      000000EEH   SFRSYM    DATA     BYTE      IP3H
      000000B6H   SFRSYM    DATA     BYTE      IP2H
      000000A8H   SFRSYM    DATA     BYTE      IE
      000000BBH   SFRSYM    DATA     BYTE      P_SW3
      000000BAH   SFRSYM    DATA     BYTE      P_SW2
      000000A2H   SFRSYM    DATA     BYTE      P_SW1
      000000CEH   SFRSYM    DATA     BYTE      SPCTL
      000000F8H   SFRSYM    DATA     BYTE      P7
L251 LINKER/LOCATER V4.66.93.0                                                        06/21/2025  18:27:27  PAGE 93


      000000E8H   SFRSYM    DATA     BYTE      P6
      000000C8H   SFRSYM    DATA     BYTE      P5
      000000C0H   SFRSYM    DATA     BYTE      P4
      000000B0H   SFRSYM    DATA     BYTE      P3
      000000A0H   SFRSYM    DATA     BYTE      P2
      00000090H   SFRSYM    DATA     BYTE      P1
      00000080H   SFRSYM    DATA     BYTE      P0
      00000D0AH   SYMBOL    EDATA    FLOAT     target_voltage
      00000D0EH   SYMBOL    EDATA    WORD      vbat_in
      00000D10H   SYMBOL    EDATA    FLOAT     adc_vbat

      00FF774BH   BLOCK     CODE     ---       LVL=0
      00FF774BH   LINE      CODE     ---       #37
      00FF774BH   LINE      CODE     ---       #41
      00FF775DH   LINE      CODE     ---       #43
      00FF7766H   LINE      CODE     ---       #44
      00FF776FH   LINE      CODE     ---       #45
      00FF7778H   LINE      CODE     ---       #46
      00FF7781H   LINE      CODE     ---       #47
      00FF7787H   LINE      CODE     ---       #48
      00FF778DH   LINE      CODE     ---       #49
      00FF7793H   LINE      CODE     ---       #50
      00FF7799H   LINE      CODE     ---       #51
      00FF779CH   LINE      CODE     ---       #54
      00FF77A8H   LINE      CODE     ---       #57
      00FF77B3H   LINE      CODE     ---       #60
      00FF77BCH   LINE      CODE     ---       #61
      00FF77D0H   LINE      CODE     ---       #62
      00FF77D2H   LINE      CODE     ---       #63
      00FF77DDH   LINE      CODE     ---       #66
      00FF77F4H   LINE      CODE     ---       #67
      00FF77FDH   LINE      CODE     ---       #68
      00FF77FFH   LINE      CODE     ---       #71
      00FF7808H   LINE      CODE     ---       #72
      00FF7811H   LINE      CODE     ---       #73
      00FF7811H   LINE      CODE     ---       #78
      00FF781CH   LINE      CODE     ---       #81
      00FF7825H   LINE      CODE     ---       #82
      00FF7839H   LINE      CODE     ---       #83
      00FF783BH   LINE      CODE     ---       #84
      00FF7846H   LINE      CODE     ---       #87
      00FF785DH   LINE      CODE     ---       #88
      00FF7866H   LINE      CODE     ---       #89
      00FF7868H   LINE      CODE     ---       #92
      00FF7871H   LINE      CODE     ---       #93
      00FF787AH   LINE      CODE     ---       #94
      00FF787AH   LINE      CODE     ---       #95
      ---         BLOCKEND  ---      ---       LVL=0

      00FF8198H   BLOCK     CODE     ---       LVL=0
      00FF8198H   LINE      CODE     ---       #104
      00FF8198H   LINE      CODE     ---       #106
      00FF819BH   LINE      CODE     ---       #107
      00FF81A6H   LINE      CODE     ---       #109
      00FF81B5H   LINE      CODE     ---       #110
      00FF81C6H   LINE      CODE     ---       #112
      00FF81CBH   LINE      CODE     ---       #113
      00FF81D2H   LINE      CODE     ---       #115
      00FF81FBH   LINE      CODE     ---       #116
      00FF8224H   LINE      CODE     ---       #119
      00FF8238H   LINE      CODE     ---       #120
      00FF824CH   LINE      CODE     ---       #121
      ---         BLOCKEND  ---      ---       LVL=0

      ---         MODULE    ---      ---       seekfree_assistant
L251 LINKER/LOCATER V4.66.93.0                                                        06/21/2025  18:27:27  PAGE 94


      00010000H   PUBLIC    XDATA    ---       seekfree_assistant_oscilloscope_data
      0001003BH   PUBLIC    XDATA    ---       seekfree_assistant_parameter_update_flag
      00010043H   PUBLIC    XDATA    ---       seekfree_assistant_parameter
      00000BC3H   PUBLIC    EDATA    BYTE      ?seekfree_assistant_camera_data_send?BYTE
      00000D14H   PUBLIC    EDATA    BYTE      ?seekfree_assistant_camera_information_config?BYTE
      00000AA9H   PUBLIC    EDATA    BYTE      ?seekfree_assistant_camera_boundary_config?BYTE
      000000D0H   SFRSYM    DATA     BYTE      PSW
      0000009DH   SFRSYM    DATA     BYTE      IRCBAND
      00000097H   SFRSYM    DATA     BYTE      AUXR2
      000000EFH   SFRSYM    DATA     BYTE      AUXINTIF
      000000FDH   SFRSYM    DATA     BYTE      S4CON
      000000ACH   SFRSYM    DATA     BYTE      S3CON
      0000009AH   SFRSYM    DATA     BYTE      S2CON
      000000B7H   SFRSYM    DATA     BYTE      IPH
      000000CDH   SFRSYM    DATA     BYTE      SPSTAT
      000000DDH   SFRSYM    DATA     BYTE      T4T3M
      000000C1H   SFRSYM    DATA     BYTE      WDT_CONTR
      000000DFH   SFRSYM    DATA     BYTE      IP3
      000000F4H   SFRSYM    DATA     BYTE      USBCON
      000000B5H   SFRSYM    DATA     BYTE      IP2
      000000FFH   SFRSYM    DATA     BYTE      RSTCFG
      000000F9H   SFRSYM    DATA     BYTE      LINICR
      0000008EH   SFRSYM    DATA     BYTE      AUXR
      000000AFH   SFRSYM    DATA     BYTE      IE2
      00000088H   SFRSYM    DATA     BYTE      TCON
      00000098H   SFRSYM    DATA     BYTE      SCON
      000000F1H   SFRSYM    DATA     BYTE      CANICR
      00000087H   SFRSYM    DATA     BYTE      PCON
      000000BCH   SFRSYM    DATA     BYTE      ADC_CONTR
      000000E7H   SFRSYM    DATA     BYTE      CMPCR2
      000000E6H   SFRSYM    DATA     BYTE      CMPCR1
      000000B8H   SFRSYM    DATA     BYTE      IP
      0000008FH   SFRSYM    DATA     BYTE      INTCLKO
      000000EEH   SFRSYM    DATA     BYTE      IP3H
      000000B6H   SFRSYM    DATA     BYTE      IP2H
      000000A8H   SFRSYM    DATA     BYTE      IE
      000000BBH   SFRSYM    DATA     BYTE      P_SW3
      000000BAH   SFRSYM    DATA     BYTE      P_SW2
      000000A2H   SFRSYM    DATA     BYTE      P_SW1
      000000CEH   SFRSYM    DATA     BYTE      SPCTL
      000000F8H   SFRSYM    DATA     BYTE      P7
      000000E8H   SFRSYM    DATA     BYTE      P6
      000000C8H   SFRSYM    DATA     BYTE      P5
      000000C0H   SFRSYM    DATA     BYTE      P4
      000000B0H   SFRSYM    DATA     BYTE      P3
      000000A0H   SFRSYM    DATA     BYTE      P2
      00000090H   SFRSYM    DATA     BYTE      P1
      00000080H   SFRSYM    DATA     BYTE      P0
      000008E5H   SYMBOL    EDATA    ---       seekfree_assistant_camera_dot_data
      000008EDH   SYMBOL    EDATA    ---       seekfree_assistant_camera_buffer
      00000937H   SYMBOL    EDATA    ---       seekfree_assistant_camera_data
      00010024H   SYMBOL    XDATA    ---       seekfree_assistant_fifo
      00010063H   SYMBOL    XDATA    ---       seekfree_assistant_buffer
      00000D6FH   SYMBOL    EDATA    ---       buffer
      00000D73H   SYMBOL    EDATA    DWORD     length
      00000D77H   SYMBOL    EDATA    BYTE      temp_sum
      00000BC3H   SYMBOL    EDATA    INT       camera_type
      00000BC5H   SYMBOL    EDATA    ---       image_addr
      00000BC9H   SYMBOL    EDATA    BYTE      boundary_num
      00000BCAH   SYMBOL    EDATA    WORD      width
      00000BCCH   SYMBOL    EDATA    WORD      height
      00000BCEH   SYMBOL    EDATA    DWORD     image_size
      00000D14H   SYMBOL    EDATA    INT       camera_type
      00000D16H   SYMBOL    EDATA    ---       image_addr
      00000D1AH   SYMBOL    EDATA    WORD      width
L251 LINKER/LOCATER V4.66.93.0                                                        06/21/2025  18:27:27  PAGE 95


      00000D1CH   SYMBOL    EDATA    WORD      height
      00000A0DH   SYMBOL    EDATA    ---       seekfree_assistant_oscilloscope
      00000A11H   SYMBOL    EDATA    BYTE      packet_size
      00000A12H   SYMBOL    EDATA    BYTE      i
      00000A13H   SYMBOL    EDATA    ---       temp_oscilloscope
      00000DD0H   SYMBOL    EDATA    ---       buffer
      00000DD4H   SYMBOL    EDATA    BYTE      i
      00000DD5H   SYMBOL    EDATA    WORD      dot_bytes
      00000AA9H   SYMBOL    EDATA    INT       boundary_type
      00000AABH   SYMBOL    EDATA    WORD      dot_num
      00000AADH   SYMBOL    EDATA    ---       dot_x1
      00000AB1H   SYMBOL    EDATA    ---       dot_x2
      00000AB5H   SYMBOL    EDATA    ---       dot_x3
      00000AB9H   SYMBOL    EDATA    ---       dot_y1
      00000ABDH   SYMBOL    EDATA    ---       dot_y2
      00000AC1H   SYMBOL    EDATA    ---       dot_y3
      00000AC5H   SYMBOL    EDATA    BYTE      i
      00000AC6H   SYMBOL    EDATA    BYTE      boundary_num
      00000AC7H   SYMBOL    EDATA    BYTE      boundary_data_type
      0000078FH   SYMBOL    EDATA    BYTE      temp_sum
      00000790H   SYMBOL    EDATA    DWORD     read_length
      00000794H   SYMBOL    EDATA    ---       receive_packet
      00000798H   SYMBOL    EDATA    ---       temp_buffer
      00000818H   SYMBOL    EDATA    DWORD     i

      ---         MODULE    ---      ---       seekfree_assistant_inface
      00000E86H   PUBLIC    EDATA    ---       seekfree_assistant_receive
      00000E88H   PUBLIC    EDATA    ---       seekfree_assistant_transfer
      000000D0H   SFRSYM    DATA     BYTE      PSW
      0000009DH   SFRSYM    DATA     BYTE      IRCBAND
      00000097H   SFRSYM    DATA     BYTE      AUXR2
      000000EFH   SFRSYM    DATA     BYTE      AUXINTIF
      000000FDH   SFRSYM    DATA     BYTE      S4CON
      000000ACH   SFRSYM    DATA     BYTE      S3CON
      0000009AH   SFRSYM    DATA     BYTE      S2CON
      000000B7H   SFRSYM    DATA     BYTE      IPH
      000000CDH   SFRSYM    DATA     BYTE      SPSTAT
      000000DDH   SFRSYM    DATA     BYTE      T4T3M
      000000C1H   SFRSYM    DATA     BYTE      WDT_CONTR
      000000DFH   SFRSYM    DATA     BYTE      IP3
      000000F4H   SFRSYM    DATA     BYTE      USBCON
      000000B5H   SFRSYM    DATA     BYTE      IP2
      000000FFH   SFRSYM    DATA     BYTE      RSTCFG
      000000F9H   SFRSYM    DATA     BYTE      LINICR
      0000008EH   SFRSYM    DATA     BYTE      AUXR
      000000AFH   SFRSYM    DATA     BYTE      IE2
      00000088H   SFRSYM    DATA     BYTE      TCON
      00000098H   SFRSYM    DATA     BYTE      SCON
      000000F1H   SFRSYM    DATA     BYTE      CANICR
      00000087H   SFRSYM    DATA     BYTE      PCON
      000000BCH   SFRSYM    DATA     BYTE      ADC_CONTR
      000000E7H   SFRSYM    DATA     BYTE      CMPCR2
      000000E6H   SFRSYM    DATA     BYTE      CMPCR1
      000000B8H   SFRSYM    DATA     BYTE      IP
      0000008FH   SFRSYM    DATA     BYTE      INTCLKO
      000000EEH   SFRSYM    DATA     BYTE      IP3H
      000000B6H   SFRSYM    DATA     BYTE      IP2H
      000000A8H   SFRSYM    DATA     BYTE      IE
      000000BBH   SFRSYM    DATA     BYTE      P_SW3
      000000BAH   SFRSYM    DATA     BYTE      P_SW2
      000000A2H   SFRSYM    DATA     BYTE      P_SW1
      000000CEH   SFRSYM    DATA     BYTE      SPCTL
      000000F8H   SFRSYM    DATA     BYTE      P7
      000000E8H   SFRSYM    DATA     BYTE      P6
      000000C8H   SFRSYM    DATA     BYTE      P5
L251 LINKER/LOCATER V4.66.93.0                                                        06/21/2025  18:27:27  PAGE 96


      000000C0H   SFRSYM    DATA     BYTE      P4
      000000B0H   SFRSYM    DATA     BYTE      P3
      000000A0H   SFRSYM    DATA     BYTE      P2
      00000090H   SFRSYM    DATA     BYTE      P1
      00000080H   SFRSYM    DATA     BYTE      P0

      ---         MODULE    ---      ---       SEEKFREE_CONFIG
      00FF00A6H   PUBLIC    CODE     ---       dl1b_default_configuration
      00FF012DH   PUBLIC    CODE     ---       imu660ra_config_file

      ---         MODULE    ---      ---       ?C?FPADD
      00FF2133H   PUBLIC    CODE     ---       ?C?FPADD
      00FF2130H   PUBLIC    CODE     ---       ?C?FPSUB

      ---         MODULE    ---      ---       ?C?FPMUL
      00FF21EBH   PUBLIC    CODE     ---       ?C?FPMUL

      ---         MODULE    ---      ---       ?C?FPDIV
      00FF228BH   PUBLIC    CODE     ---       ?C?FPDIV

      ---         MODULE    ---      ---       ?C?FPCMP
      00FF230EH   PUBLIC    CODE     ---       ?C?FPCMP
      00FF230CH   PUBLIC    CODE     ---       ?C?FPCMP3

      ---         MODULE    ---      ---       ?C?FPNEG
      00FF2352H   PUBLIC    CODE     ---       ?C?FPNEG

      ---         MODULE    ---      ---       ?C?FCAST
      00FF236AH   PUBLIC    CODE     NEAR LAB  ?C?FCASTC
      00FF2365H   PUBLIC    CODE     NEAR LAB  ?C?FCASTI
      00FF2360H   PUBLIC    CODE     NEAR LAB  ?C?FCASTL

      ---         MODULE    ---      ---       ?C?CASTF
      00FF239DH   PUBLIC    CODE     NEAR LAB  ?C?CASTF

      ---         MODULE    ---      ---       PRINTF
      00000A87H   PUBLIC    EDATA    ---       ?PRINTF?BYTE
      00FF23DAH   PUBLIC    CODE     NEAR LAB  PRINTF

      ---         MODULE    ---      ---       FABS
      00FF2406H   PUBLIC    CODE     NEAR LAB  FABS?_

      ---         MODULE    ---      ---       ?C?FPGETOPN
      00FF2415H   PUBLIC    CODE     ---       ?C?FPGETOPN2
      00FF2452H   PUBLIC    CODE     ---       ?C?FPNANRESULT
      00FF245AH   PUBLIC    CODE     ---       ?C?FPOVERFLOW
      00FF242EH   PUBLIC    CODE     ---       ?C?FPRESULT
      00FF2444H   PUBLIC    CODE     ---       ?C?FPRESULT2
      00FF2457H   PUBLIC    CODE     ---       ?C?FPUNDERFLOW

      ---         MODULE    ---      ---       ?C?PRNFMT
      00FF2493H   PUBLIC    CODE     ---       ?C?PRNFMT

      ---         MODULE    ---      ---       ?C?FPCONVERT
      00FF28B0H   PUBLIC    CODE     ---       ?C?FPCONVERT
      00FF2968H   PUBLIC    CODE     ---       ?C?FPROUND

      ---         MODULE    ---      ---       ?C?FTNPWR
      00FF29DBH   PUBLIC    CODE     ---       ?C?FTNPWR

      ---         MODULE    ---      ---       ?C_START
      00FF0000H   PUBLIC    CODE     ---       ?C?STARTUP
      00FF0000H   PUBLIC    CODE     ---       ?C_STARTUP

      ---         MODULE    ---      ---       ?C?INITEDATA
L251 LINKER/LOCATER V4.66.93.0                                                        06/21/2025  18:27:27  PAGE 97


      00FF89A8H   PUBLIC    CODE     ---       ?C?INITEDATA

      ---         MODULE    ---      ---       ?C?INITHDATA
      00FF89D1H   PUBLIC    CODE     ---       ?C?INITHDATA

      ---         MODULE    ---      ---       ?C?SIDIV
      00FF2A12H   PUBLIC    CODE     ---       ?C?SIDIV

      ---         MODULE    ---      ---       ?C?ULDIV
      00FF2A46H   PUBLIC    CODE     NEAR LAB  ?C?ULDIV
      00FF2A44H   PUBLIC    CODE     NEAR LAB  ?C?ULIDIV

      ---         MODULE    ---      ---       ?C?SLDIV
      00FF2A97H   PUBLIC    CODE     NEAR LAB  ?C?SLDIV

      ---         MODULE    ---      ---       ?C?BMOVENP
      00FF2ACDH   PUBLIC    CODE     ---       ?C?BMOVENP
      00FF2ACBH   PUBLIC    CODE     ---       ?C?BMOVENP8

      ---         MODULE    ---      ---       memcpy
      00FF005EH   PUBLIC    CODE     ---       memcpy?_

      ---         MODULE    ---      ---       memset
      00FF91EAH   PUBLIC    CODE     ---       memset?_

      ---         MODULE    ---      ---       ?C?INITEDATA_END
      00FF9A9FH   PUBLIC    HCONST   WORD      ?C?INITEDATA_END

      ---         MODULE    ---      ---       ?C?INITHDATA_END
      00FF9EB9H   PUBLIC    HCONST   WORD      ?C?INITHDATA_END

Program Size: data=8.3 edata+hdata=4025 xdata=536 const=3354 code=37418
L251 RUN COMPLETE.  0 WARNING(S),  0 ERROR(S)
